
hello.cof:     file format coff-pic30

Disassembly of section .reset:

00000000 <.reset>:
   0:	10 11 04    	goto      0x1110 <__reset>
   2:	00 00 00 
Disassembly of section .text:

00001110 <__reset>:
    1110:	2f c9 20    	mov.w     #0xc92, w15
    1112:	0e ff 27    	mov.w     #0x7ff0, w14
    1114:	0e 01 88    	mov.w     w14, 0x20
    1116:	00 00 00    	nop       
    1118:	00 00 20    	mov.w     #0x0, w0
    111a:	00 00 e0    	cp0.w     w0
    111c:	02 00 32    	bra       Z, 0x1122 <CORCON_RESET>
    111e:	00 01 20    	mov.w     #0x10, w0
    1120:	20 02 88    	mov.w     w0, 0x44

00001122 <CORCON_RESET>:
    1122:	0c 00 07    	rcall     0x113c <__psv_init>
    1124:	00 60 23    	mov.w     #0x3600, w0
    1126:	01 00 20    	mov.w     #0x0, w1
    1128:	0f 00 07    	rcall     0x1148 <__data_init>
    112a:	00 00 20    	mov.w     #0x0, w0
    112c:	00 00 e0    	cp0.w     w0
    112e:	02 00 32    	bra       Z, 0x1134 <L11>
    1130:	00 00 02    	call      0x0 <__DEFAULT_VECTOR-0x110c>
    1132:	00 00 00 

00001134 <L11>:
    1134:	f2 36 02    	call      0x36f2 <_main>
    1136:	00 00 00 
    1138:	00 40 da    	.pword 0xda4000
    113a:	00 00 fe    	reset     

0000113c <__psv_init>:
    113c:	e0 05 20    	mov.w     #0x5e, w0
    113e:	00 00 e0    	cp0.w     w0
    1140:	02 00 32    	bra       Z, 0x1146 <L12>
    1142:	00 20 20    	mov.w     #0x200, w0
    1144:	90 01 88    	mov.w     w0, 0x32

00001146 <L12>:
    1146:	00 00 06    	return    

00001148 <__data_init>:
    1148:	a1 02 88    	mov.w     w1, 0x54
    114a:	80 00 78    	mov.w     w0, w1
    114c:	00 00 eb    	clr.w     w0
    114e:	1a 00 37    	bra       0x1184 <L41>

00001150 <L11>:
    1150:	e2 80 40    	add.w     w1, #0x2, w1
    1152:	54 a0 b4    	addc.w    0x54
    1154:	91 01 ba    	tblrdl.w  [w1], w3
    1156:	e2 80 40    	add.w     w1, #0x2, w1
    1158:	54 a0 b4    	addc.w    0x54
    115a:	91 02 ba    	tblrdl.w  [w1], w5
    115c:	e2 80 40    	add.w     w1, #0x2, w1
    115e:	54 a0 b4    	addc.w    0x54
    1160:	00 02 eb    	clr.w     w4
    1162:	47 2b de    	lsr.w     w5, #0x7, w6
    1164:	f5 07 b2    	and.w     #0x7f, w5
    1166:	a6 01 88    	mov.w     w6, 0x34
    1168:	60 2c e1    	cp.b      w5, #0x0
    116a:	08 00 3a    	bra       NZ, 0x117c <L21>

0000116c <L91>:
    116c:	00 49 eb    	clr.b     [w2]
    116e:	02 01 e8    	inc.w     w2, w2
    1170:	02 00 39    	bra       NC, 0x1176 <L81>
    1172:	34 20 ec    	inc.w     0x34
    1174:	02 f0 a0    	bset.w    w2, #0xf

00001176 <L81>:
    1176:	83 01 e9    	dec.w     w3, w3
    1178:	f9 ff 3e    	bra       GTU, 0x116c <L91>
    117a:	04 00 37    	bra       0x1184 <L41>

0000117c <L21>:
    117c:	61 28 e1    	cp.w      w5, #0x1
    117e:	01 00 32    	bra       Z, 0x1182 <L31>
    1180:	00 82 eb    	setm.w    w4

00001182 <L31>:
    1182:	04 00 07    	rcall     0x118c <L12>

00001184 <L41>:
    1184:	11 01 ba    	tblrdl.w  [w1], w2
    1186:	02 00 e0    	cp0.w     w2
    1188:	e3 ff 3a    	bra       NZ, 0x1150 <L11>
    118a:	00 00 06    	return    

0000118c <L12>:
    118c:	04 d0 a3    	btst.c    w4, #0xd
    118e:	e2 0f 49    	addc.w    w2, #0x2, [w15]
    1190:	1c 00 39    	bra       NC, 0x11ca <L22>
    1192:	81 02 78    	mov.w     w1, w5
    1194:	35 49 ba    	tblrdl.b  [w5++], [w2]
    1196:	02 01 e8    	inc.w     w2, w2
    1198:	02 00 39    	bra       NC, 0x119e <L32>
    119a:	34 20 ec    	inc.w     0x34
    119c:	02 f0 a0    	bset.w    w2, #0xf

0000119e <L32>:
    119e:	83 01 e9    	dec.w     w3, w3
    11a0:	0f 00 32    	bra       Z, 0x11c0 <L42>
    11a2:	25 49 ba    	tblrdl.b  [w5--], [w2]
    11a4:	02 01 e8    	inc.w     w2, w2
    11a6:	02 00 39    	bra       NC, 0x11ac <L33>
    11a8:	34 20 ec    	inc.w     0x34
    11aa:	02 f0 a0    	bset.w    w2, #0xf

000011ac <L33>:
    11ac:	83 01 e9    	dec.w     w3, w3
    11ae:	08 00 32    	bra       Z, 0x11c0 <L42>
    11b0:	04 00 e0    	cp0.w     w4
    11b2:	06 00 32    	bra       Z, 0x11c0 <L42>
    11b4:	15 c9 ba    	tblrdh.b  [w5], [w2]
    11b6:	02 01 e8    	inc.w     w2, w2
    11b8:	02 00 39    	bra       NC, 0x11be <L34>
    11ba:	34 20 ec    	inc.w     0x34
    11bc:	02 f0 a0    	bset.w    w2, #0xf

000011be <L34>:
    11be:	83 01 e9    	dec.w     w3, w3

000011c0 <L42>:
    11c0:	81 80 e8    	inc2.w    w1, w1
    11c2:	54 a0 b4    	addc.w    0x54
    11c4:	03 00 e0    	cp0.w     w3
    11c6:	e2 ff 3a    	bra       NZ, 0x118c <L12>
    11c8:	00 00 06    	return    

000011ca <L22>:
    11ca:	91 02 ba    	tblrdl.w  [w1], w5
    11cc:	05 59 78    	mov.b     w5, [w2++]
    11ce:	83 01 e9    	dec.w     w3, w3
    11d0:	f7 ff 32    	bra       Z, 0x11c0 <L42>
    11d2:	c8 2a de    	lsr.w     w5, #0x8, w5
    11d4:	05 59 78    	mov.b     w5, [w2++]
    11d6:	83 01 e9    	dec.w     w3, w3
    11d8:	f3 ff 32    	bra       Z, 0x11c0 <L42>
    11da:	04 00 e0    	cp0.w     w4
    11dc:	f1 ff 32    	bra       Z, 0x11c0 <L42>
    11de:	11 d9 ba    	tblrdh.b  [w1], [w2++]
    11e0:	ee ff 37    	bra       0x11be <L34>

000011e2 <.handle>:
    11e2:	66 2f 04    	goto      0x2f66 <___digitalRead>
    11e4:	00 00 00 
    11e6:	22 2f 04    	goto      0x2f22 <___digitalWrite>
    11e8:	00 00 00 
    11ea:	8a 2f 04    	goto      0x2f8a <___analogRead>
    11ec:	00 00 00 
    11ee:	44 1c 04    	goto      0x1c44 <___putc_nobuffer>
    11f0:	00 00 00 
    11f2:	88 1c 04    	goto      0x1c88 <___putc_buffer>
    11f4:	00 00 00 
    11f6:	68 1c 04    	goto      0x1c68 <___getc_nobuffer>
    11f8:	00 00 00 
    11fa:	76 1d 04    	goto      0x1d76 <___getc_buffer>
    11fc:	00 00 00 

000011fe <___gesf2>:
    11fe:	f4 ff 2f    	mov.w     #0xffff, w4
    1200:	f3 00 37    	bra       0x13e8 <__fcompare>

00001202 <___mulsf3>:
    1202:	88 9f be    	mov.d     w8, [w15++]
    1204:	8a 9f be    	mov.d     w10, [w15++]
    1206:	8c 1f 78    	mov.w     w12, [w15++]
    1208:	0a 01 07    	rcall     0x141e <__funpack2>
    120a:	11 01 33    	bra       N, 0x142e <__fPropagateNaN>
    120c:	03 86 6c    	xor.w     w9, w3, w12
    120e:	64 50 e1    	cp.w      w10, #0x4
    1210:	24 00 32    	bra       Z, 0x125a <aisinfinite>
    1212:	64 20 e1    	cp.w      w4, #0x4
    1214:	27 00 32    	bra       Z, 0x1264 <bisinfinite>
    1216:	61 50 e1    	cp.w      w10, #0x1
    1218:	22 00 32    	bra       Z, 0x125e <return8>
    121a:	61 20 e1    	cp.w      w4, #0x1
    121c:	21 00 32    	bra       Z, 0x1260 <return2>
    121e:	8b 85 42    	add.w     w5, w11, w11
    1220:	eb 07 b1    	sub.w     #0x7e, w11
    1222:	01 34 b8    	mul.uu    w6, w1, w8
    1224:	00 3a b8    	mul.uu    w7, w0, w4
    1226:	08 04 42    	add.w     w4, w8, w8
    1228:	89 84 4a    	addc.w    w5, w9, w9
    122a:	01 3a b8    	mul.uu    w7, w1, w4
    122c:	00 30 b8    	mul.uu    w6, w0, w0
    122e:	88 80 40    	add.w     w1, w8, w1
    1230:	09 01 4a    	addc.w    w4, w9, w2
    1232:	04 00 33    	bra       N, 0x123c <formsticky>
    1234:	00 00 40    	add.w     w0, w0, w0
    1236:	81 80 48    	addc.w    w1, w1, w1
    1238:	02 01 49    	addc.w    w2, w2, w2
    123a:	8b 05 e9    	dec.w     w11, w11

0000123c <formsticky>:
    123c:	c9 09 dd    	sl.w      w1, #0x9, w3
    123e:	83 01 70    	ior.w     w0, w3, w3
    1240:	01 00 32    	bra       Z, 0x1244 <formRandSig>
    1242:	13 00 20    	mov.w     #0x1, w3

00001244 <formRandSig>:
    1244:	c8 14 de    	lsr.w     w2, #0x8, w9
    1246:	48 14 dd    	sl.w      w2, #0x8, w8
    1248:	47 09 de    	lsr.w     w1, #0x7, w2
    124a:	12 00 b2    	and.w     #0x1, w2
    124c:	c8 08 de    	lsr.w     w1, #0x8, w1
    124e:	08 84 70    	ior.w     w1, w8, w8
    1250:	fe 00 07    	rcall     0x144e <__fpack>

00001252 <return0>:
    1252:	01 f0 a1    	bclr.w    w1, #0xf
    1254:	0c f0 a7    	btsc.w    w12, #0xf
    1256:	01 f0 a0    	bset.w    w1, #0xf
    1258:	f3 00 37    	bra       0x1440 <__fbopExit>

0000125a <aisinfinite>:
    125a:	61 20 e1    	cp.w      w4, #0x1
    125c:	f5 00 32    	bra       Z, 0x1448 <__fbopReturnNaN>

0000125e <return8>:
    125e:	08 01 be    	mov.d     w8, w2

00001260 <return2>:
    1260:	02 00 be    	mov.d     w2, w0
    1262:	f7 ff 37    	bra       0x1252 <return0>

00001264 <bisinfinite>:
    1264:	61 50 e1    	cp.w      w10, #0x1
    1266:	fc ff 3a    	bra       NZ, 0x1260 <return2>
    1268:	ef 00 37    	bra       0x1448 <__fbopReturnNaN>

0000126a <___fixunssfsi>:
    126a:	00 01 be    	mov.d     w0, w2
    126c:	16 01 07    	rcall     0x149a <__funpack>
    126e:	04 70 a7    	btsc.w    w4, #0x7
    1270:	03 f0 a1    	bclr.w    w3, #0xf
    1272:	03 f8 a3    	btst.z    w3, #0xf
    1274:	13 00 3a    	bra       NZ, 0x129c <returnzero>
    1276:	65 09 b1    	sub.w     #0x96, w5
    1278:	10 00 32    	bra       Z, 0x129a <exit>
    127a:	09 00 35    	bra       LT, 0x128e <shiftright>
    127c:	69 28 e1    	cp.w      w5, #0x9
    127e:	02 00 35    	bra       LT, 0x1284 <shiftleft>
    1280:	01 00 28    	mov.w     #0x8000, w1
    1282:	00 00 05    	retlw.w   #0x0, w0

00001284 <shiftleft>:
    1284:	00 00 40    	add.w     w0, w0, w0
    1286:	81 80 48    	addc.w    w1, w1, w1
    1288:	85 02 e9    	dec.w     w5, w5
    128a:	fc ff 3a    	bra       NZ, 0x1284 <shiftleft>
    128c:	00 00 06    	return    

0000128e <shiftright>:
    128e:	f8 8f 42    	add.w     w5, #0x18, [w15]
    1290:	05 00 35    	bra       LT, 0x129c <returnzero>

00001292 <shiftrightloop>:
    1292:	81 00 d1    	lsr.w     w1, w1
    1294:	00 80 d3    	rrc.w     w0, w0
    1296:	85 02 e8    	inc.w     w5, w5
    1298:	fc ff 3a    	bra       NZ, 0x1292 <shiftrightloop>

0000129a <exit>:
    129a:	00 00 06    	return    

0000129c <returnzero>:
    129c:	80 00 eb    	clr.w     w1
    129e:	00 00 05    	retlw.w   #0x0, w0

000012a0 <___floatunsisf>:
    12a0:	60 11 b8    	mul.uu    w2, #0x0, w2
    12a2:	10 01 37    	bra       0x14c4 <___floatundisf>

000012a4 <___subsf3>:
    12a4:	03 f0 a2    	btg.w     w3, #0xf

000012a6 <___addsf3>:
    12a6:	88 9f be    	mov.d     w8, [w15++]
    12a8:	8a 9f be    	mov.d     w10, [w15++]
    12aa:	8c 1f 78    	mov.w     w12, [w15++]
    12ac:	b8 00 07    	rcall     0x141e <__funpack2>
    12ae:	bf 00 33    	bra       N, 0x142e <__fPropagateNaN>
    12b0:	64 50 e1    	cp.w      w10, #0x4
    12b2:	4f 00 32    	bra       Z, 0x1352 <aisinfinite>

000012b4 <checkspecialb>:
    12b4:	64 20 e1    	cp.w      w4, #0x4
    12b6:	52 00 32    	bra       Z, 0x135c <return2>
    12b8:	03 82 6c    	xor.w     w9, w3, w4
    12ba:	07 00 3b    	bra       NN, 0x12ca <getsign>
    12bc:	09 05 d0    	sl.w      w9, w10
    12be:	03 06 d0    	sl.w      w3, w12
    12c0:	82 0f 54    	sub.w     w8, w2, [w15]
    12c2:	0c 06 5d    	subb.w    w10, w12, w12
    12c4:	02 00 39    	bra       NC, 0x12ca <getsign>
    12c6:	02 00 32    	bra       Z, 0x12cc <gotsign>
    12c8:	89 01 78    	mov.w     w9, w3

000012ca <getsign>:
    12ca:	03 06 78    	mov.w     w3, w12

000012cc <gotsign>:
    12cc:	85 82 55    	sub.w     w11, w5, w5
    12ce:	04 00 3d    	bra       GE, 0x12d8 <expcanonical>
    12d0:	00 03 fd    	exch      w0, w6
    12d2:	81 03 fd    	exch      w1, w7
    12d4:	85 02 ea    	neg.w     w5, w5
    12d6:	8b 85 42    	add.w     w5, w11, w11

000012d8 <expcanonical>:
    12d8:	84 0f 72    	ior.w     w4, w4, [w15]
    12da:	02 00 3b    	bra       NN, 0x12e0 <nonegate>
    12dc:	60 00 10    	subr.w    w0, #0x0, w0
    12de:	e0 80 18    	subbr.w   w1, #0x0, w1

000012e0 <nonegate>:
    12e0:	60 11 b8    	mul.uu    w2, #0x0, w2
    12e2:	00 05 eb    	clr.w     w10
    12e4:	7a 28 e1    	cp.w      w5, #0x1a
    12e6:	0a 00 39    	bra       NC, 0x12fc <aligniter>
    12e8:	06 00 78    	mov.w     w6, w0
    12ea:	c7 5d dd    	sl.w      w11, #0x7, w11
    12ec:	f7 07 b2    	and.w     #0x7f, w7
    12ee:	87 80 75    	ior.w     w11, w7, w1
    12f0:	2d 00 37    	bra       0x134c <signoff>

000012f2 <align>:
    12f2:	82 81 71    	ior.w     w3, w2, w3
    12f4:	0a 01 78    	mov.w     w10, w2
    12f6:	61 05 60    	and.w     w0, #0x1, w10
    12f8:	81 80 d1    	asr.w     w1, w1
    12fa:	00 80 d3    	rrc.w     w0, w0

000012fc <aligniter>:
    12fc:	85 02 e9    	dec.w     w5, w5
    12fe:	f9 ff 3b    	bra       NN, 0x12f2 <align>

00001300 <aligned>:
    1300:	06 04 40    	add.w     w0, w6, w8
    1302:	87 84 48    	addc.w    w1, w7, w9
    1304:	02 00 3b    	bra       NN, 0x130a <normalizesum>
    1306:	60 04 14    	subr.w    w8, #0x0, w8
    1308:	e0 84 1c    	subbr.w   w9, #0x0, w9

0000130a <normalizesum>:
    130a:	09 88 a3    	btst.z    w9, #0x8
    130c:	07 00 32    	bra       Z, 0x131c <checknormal>
    130e:	8a 81 71    	ior.w     w3, w10, w3
    1310:	82 81 71    	ior.w     w3, w2, w3
    1312:	61 01 64    	and.w     w8, #0x1, w2
    1314:	89 04 d1    	lsr.w     w9, w9
    1316:	08 84 d3    	rrc.w     w8, w8
    1318:	8b 05 e8    	inc.w     w11, w11
    131a:	17 00 37    	bra       0x134a <round>

0000131c <checknormal>:
    131c:	09 78 a3    	btst.z    w9, #0x7
    131e:	13 00 3a    	bra       NZ, 0x1346 <discardguard>

00001320 <underflow>:
    1320:	0b 00 e0    	cp0.w     w11
    1322:	13 00 34    	bra       LE, 0x134a <round>
    1324:	8b 05 e9    	dec.w     w11, w11
    1326:	08 04 44    	add.w     w8, w8, w8
    1328:	89 84 4c    	addc.w    w9, w9, w9
    132a:	0a 44 74    	ior.b     w8, w10, w8
    132c:	09 78 a3    	btst.z    w9, #0x7
    132e:	0d 00 3a    	bra       NZ, 0x134a <round>

00001330 <normalizeloop>:
    1330:	0b 00 e0    	cp0.w     w11
    1332:	07 00 34    	bra       LE, 0x1342 <normalizeexit>
    1334:	8b 05 e9    	dec.w     w11, w11
    1336:	08 04 44    	add.w     w8, w8, w8
    1338:	89 84 4c    	addc.w    w9, w9, w9
    133a:	01 00 3a    	bra       NZ, 0x133e <normalizetest>
    133c:	0b 00 20    	mov.w     #0x0, w11

0000133e <normalizetest>:
    133e:	09 78 a3    	btst.z    w9, #0x7
    1340:	f7 ff 32    	bra       Z, 0x1330 <normalizeloop>

00001342 <normalizeexit>:
    1342:	00 01 eb    	clr.w     w2
    1344:	02 00 37    	bra       0x134a <round>

00001346 <discardguard>:
    1346:	82 81 71    	ior.w     w3, w2, w3
    1348:	0a 01 78    	mov.w     w10, w2

0000134a <round>:
    134a:	81 00 07    	rcall     0x144e <__fpack>

0000134c <signoff>:
    134c:	0c f0 a7    	btsc.w    w12, #0xf
    134e:	01 f0 a0    	bset.w    w1, #0xf
    1350:	77 00 37    	bra       0x1440 <__fbopExit>

00001352 <aisinfinite>:
    1352:	64 20 e1    	cp.w      w4, #0x4
    1354:	02 00 3a    	bra       NZ, 0x135a <return8>
    1356:	83 8f 6c    	xor.w     w9, w3, [w15]
    1358:	77 00 33    	bra       N, 0x1448 <__fbopReturnNaN>

0000135a <return8>:
    135a:	08 01 be    	mov.d     w8, w2

0000135c <return2>:
    135c:	02 00 be    	mov.d     w2, w0
    135e:	70 00 37    	bra       0x1440 <__fbopExit>

00001360 <___divsf3>:
    1360:	88 9f be    	mov.d     w8, [w15++]
    1362:	8a 9f be    	mov.d     w10, [w15++]
    1364:	8c 1f 78    	mov.w     w12, [w15++]
    1366:	5b 00 07    	rcall     0x141e <__funpack2>
    1368:	62 00 33    	bra       N, 0x142e <__fPropagateNaN>
    136a:	03 86 6c    	xor.w     w9, w3, w12
    136c:	64 50 e1    	cp.w      w10, #0x4
    136e:	2e 00 32    	bra       Z, 0x13cc <aisinfinite>
    1370:	64 20 e1    	cp.w      w4, #0x4
    1372:	33 00 32    	bra       Z, 0x13da <returnZero>
    1374:	61 50 e1    	cp.w      w10, #0x1
    1376:	2f 00 32    	bra       Z, 0x13d6 <aiszero>
    1378:	61 20 e1    	cp.w      w4, #0x1
    137a:	31 00 32    	bra       Z, 0x13de <returnInf>

0000137c <finitenonzero>:
    137c:	85 85 55    	sub.w     w11, w5, w11
    137e:	eb 07 b0    	add.w     #0x7e, w11
    1380:	09 00 20    	mov.w     #0x0, w9
    1382:	08 04 20    	mov.w     #0x40, w8
    1384:	05 00 37    	bra       0x1390 <diventry>

00001386 <divnext>:
    1386:	08 04 44    	add.w     w8, w8, w8
    1388:	89 84 4c    	addc.w    w9, w9, w9
    138a:	0a 00 31    	bra       C, 0x13a0 <divdone>

0000138c <divloop>:
    138c:	06 03 43    	add.w     w6, w6, w6
    138e:	87 83 4b    	addc.w    w7, w7, w7

00001390 <diventry>:
    1390:	00 01 53    	sub.w     w6, w0, w2
    1392:	81 81 5b    	subb.w    w7, w1, w3
    1394:	f8 ff 33    	bra       N, 0x1386 <divnext>
    1396:	02 03 be    	mov.d     w2, w6
    1398:	08 00 a0    	bset.w    w8, #0x0
    139a:	08 04 44    	add.w     w8, w8, w8
    139c:	89 84 4c    	addc.w    w9, w9, w9
    139e:	f6 ff 39    	bra       NC, 0x138c <divloop>

000013a0 <divdone>:
    13a0:	c6 39 dd    	sl.w      w7, #0x6, w3
    13a2:	83 01 73    	ior.w     w6, w3, w3
    13a4:	01 00 32    	bra       Z, 0x13a8 <stickyok>
    13a6:	13 00 20    	mov.w     #0x1, w3

000013a8 <stickyok>:
    13a8:	89 04 d1    	lsr.w     w9, w9
    13aa:	08 84 d3    	rrc.w     w8, w8
    13ac:	09 98 a3    	btst.z    w9, #0x9
    13ae:	05 00 32    	bra       Z, 0x13ba <guardused>
    13b0:	08 00 a7    	btsc.w    w8, #0x0
    13b2:	03 00 a0    	bset.w    w3, #0x0
    13b4:	89 04 d1    	lsr.w     w9, w9
    13b6:	08 84 d3    	rrc.w     w8, w8
    13b8:	8b 05 e8    	inc.w     w11, w11

000013ba <guardused>:
    13ba:	89 04 d1    	lsr.w     w9, w9
    13bc:	08 84 d3    	rrc.w     w8, w8
    13be:	00 01 eb    	clr.w     w2
    13c0:	02 81 d2    	rlc.w     w2, w2
    13c2:	45 00 07    	rcall     0x144e <__fpack>

000013c4 <return0>:
    13c4:	01 f0 a1    	bclr.w    w1, #0xf
    13c6:	0c f0 a7    	btsc.w    w12, #0xf
    13c8:	01 f0 a0    	bset.w    w1, #0xf
    13ca:	3a 00 37    	bra       0x1440 <__fbopExit>

000013cc <aisinfinite>:
    13cc:	64 20 e1    	cp.w      w4, #0x4
    13ce:	3c 00 32    	bra       Z, 0x1448 <__fbopReturnNaN>

000013d0 <return8>:
    13d0:	08 01 be    	mov.d     w8, w2

000013d2 <return2>:
    13d2:	02 00 be    	mov.d     w2, w0
    13d4:	f7 ff 37    	bra       0x13c4 <return0>

000013d6 <aiszero>:
    13d6:	61 20 e1    	cp.w      w4, #0x1
    13d8:	37 00 32    	bra       Z, 0x1448 <__fbopReturnNaN>

000013da <returnZero>:
    13da:	60 00 b8    	mul.uu    w0, #0x0, w0
    13dc:	f3 ff 37    	bra       0x13c4 <return0>

000013de <returnInf>:
    13de:	00 00 20    	mov.w     #0x0, w0
    13e0:	01 f8 27    	mov.w     #0x7f80, w1
    13e2:	f0 ff 37    	bra       0x13c4 <return0>

000013e4 <___eqsf2>:
    13e4:	14 00 20    	mov.w     #0x1, w4
    13e6:	00 00 37    	bra       0x13e8 <__fcompare>

000013e8 <__fcompare>:
    13e8:	88 9f be    	mov.d     w8, [w15++]
    13ea:	8a 9f be    	mov.d     w10, [w15++]
    13ec:	84 1f 78    	mov.w     w4, [w15++]
    13ee:	17 00 07    	rcall     0x141e <__funpack2>
    13f0:	4f 00 78    	mov.w     [--w15], w0
    13f2:	11 00 33    	bra       N, 0x1416 <exit>
    13f4:	f0 ff 2f    	mov.w     #0xffff, w0
    13f6:	83 8f 6c    	xor.w     w9, w3, [w15]
    13f8:	06 00 3b    	bra       NN, 0x1406 <comparemag>
    13fa:	04 05 65    	and.w     w10, w4, w10
    13fc:	0a 00 a7    	btsc.w    w10, #0x0
    13fe:	08 00 37    	bra       0x1410 <returnEqual>
    1400:	09 f0 a6    	btss.w    w9, #0xf
    1402:	10 00 20    	mov.w     #0x1, w0
    1404:	08 00 37    	bra       0x1416 <exit>

00001406 <comparemag>:
    1406:	82 0f 54    	sub.w     w8, w2, [w15]
    1408:	83 8f 5c    	subb.w    w9, w3, [w15]
    140a:	03 00 39    	bra       NC, 0x1412 <adjust>
    140c:	10 00 20    	mov.w     #0x1, w0
    140e:	01 00 3e    	bra       GTU, 0x1412 <adjust>

00001410 <returnEqual>:
    1410:	00 00 20    	mov.w     #0x0, w0

00001412 <adjust>:
    1412:	09 f0 a7    	btsc.w    w9, #0xf
    1414:	00 00 ea    	neg.w     w0, w0

00001416 <exit>:
    1416:	4f 05 be    	mov.d     [--w15], w10
    1418:	4f 04 be    	mov.d     [--w15], w8
    141a:	00 00 e0    	cp0.w     w0
    141c:	00 00 06    	return    

0000141e <__funpack2>:
    141e:	00 04 be    	mov.d     w0, w8
    1420:	3c 00 07    	rcall     0x149a <__funpack>
    1422:	00 03 be    	mov.d     w0, w6
    1424:	04 05 be    	mov.d     w4, w10
    1426:	02 00 be    	mov.d     w2, w0
    1428:	38 00 07    	rcall     0x149a <__funpack>
    142a:	84 4f 75    	ior.b     w10, w4, [w15]
    142c:	00 00 06    	return    

0000142e <__fPropagateNaN>:
    142e:	02 00 be    	mov.d     w2, w0
    1430:	64 50 e1    	cp.w      w10, #0x4
    1432:	05 00 36    	bra       LEU, 0x143e <return0>
    1434:	64 20 e1    	cp.w      w4, #0x4
    1436:	02 00 36    	bra       LEU, 0x143c <return8>
    1438:	09 68 a3    	btst.z    w9, #0x6
    143a:	01 00 3a    	bra       NZ, 0x143e <return0>

0000143c <return8>:
    143c:	08 00 be    	mov.d     w8, w0

0000143e <return0>:
    143e:	01 60 a0    	bset.w    w1, #0x6

00001440 <__fbopExit>:
    1440:	4f 06 78    	mov.w     [--w15], w12
    1442:	4f 05 be    	mov.d     [--w15], w10
    1444:	4f 04 be    	mov.d     [--w15], w8
    1446:	00 00 06    	return    

00001448 <__fbopReturnNaN>:
    1448:	f0 ff 2f    	mov.w     #0xffff, w0
    144a:	f1 ff 27    	mov.w     #0x7fff, w1
    144c:	f9 ff 37    	bra       0x1440 <__fbopExit>

0000144e <__fpack>:
    144e:	81 00 20    	mov.w     #0x8, w1
    1450:	61 80 55    	sub.w     w11, #0x1, w0
    1452:	0b 00 3d    	bra       GE, 0x146a <notsubnormal>
    1454:	0b 00 20    	mov.w     #0x0, w11
    1456:	61 fe 2f    	mov.w     #0xffe6, w1
    1458:	01 00 e1    	cp.w      w0, w1
    145a:	1d 00 34    	bra       LE, 0x1496 <zerosig>

0000145c <subnormal>:
    145c:	82 81 71    	ior.w     w3, w2, w3
    145e:	61 01 64    	and.w     w8, #0x1, w2
    1460:	89 04 d1    	lsr.w     w9, w9
    1462:	08 84 d3    	rrc.w     w8, w8
    1464:	00 00 e8    	inc.w     w0, w0
    1466:	fa ff 3a    	bra       NZ, 0x145c <subnormal>
    1468:	71 00 20    	mov.w     #0x7, w1

0000146a <notsubnormal>:
    146a:	61 00 64    	and.w     w8, #0x1, w0
    146c:	03 00 70    	ior.w     w0, w3, w0
    146e:	02 00 60    	and.w     w0, w2, w0
    1470:	09 00 32    	bra       Z, 0x1484 <packupandgo>
    1472:	61 04 44    	add.w     w8, #0x1, w8
    1474:	e0 84 4c    	addc.w    w9, #0x0, w9
    1476:	09 88 a5    	btst.z    w9, w1
    1478:	05 00 32    	bra       Z, 0x1484 <packupandgo>
    147a:	8b 05 e8    	inc.w     w11, w11
    147c:	68 08 e1    	cp.w      w1, #0x8
    147e:	02 00 3a    	bra       NZ, 0x1484 <packupandgo>
    1480:	89 04 d1    	lsr.w     w9, w9
    1482:	08 84 d3    	rrc.w     w8, w8

00001484 <packupandgo>:
    1484:	f2 0f 20    	mov.w     #0xff, w2
    1486:	02 58 e1    	cp.w      w11, w2
    1488:	05 00 3d    	bra       GE, 0x1494 <overflow>
    148a:	c7 5d dd    	sl.w      w11, #0x7, w11
    148c:	f9 07 b2    	and.w     #0x7f, w9
    148e:	89 80 75    	ior.w     w11, w9, w1
    1490:	08 00 78    	mov.w     w8, w0
    1492:	00 00 06    	return    

00001494 <overflow>:
    1494:	0b f8 27    	mov.w     #0x7f80, w11

00001496 <zerosig>:
    1496:	8b 00 78    	mov.w     w11, w1
    1498:	00 00 05    	retlw.w   #0x0, w0

0000149a <__funpack>:
    149a:	c7 0a de    	lsr.w     w1, #0x7, w5
    149c:	f1 07 b2    	and.w     #0x7f, w1
    149e:	f5 0f b2    	and.w     #0xff, w5
    14a0:	08 00 32    	bra       Z, 0x14b2 <zeroorsub>
    14a2:	e1 cf 42    	add.b     w5, #0x1, [w15]
    14a4:	02 00 32    	bra       Z, 0x14aa <nanorinf>

000014a6 <finitereturn>:
    14a6:	01 70 a0    	bset.w    w1, #0x7
    14a8:	24 00 05    	retlw.w   #0x2, w4

000014aa <nanorinf>:
    14aa:	81 0f 70    	ior.w     w0, w1, [w15]
    14ac:	01 00 32    	bra       Z, 0x14b0 <infinite>
    14ae:	04 08 05    	retlw.w   #0x80, w4

000014b0 <infinite>:
    14b0:	44 00 05    	retlw.w   #0x4, w4

000014b2 <zeroorsub>:
    14b2:	81 0f 70    	ior.w     w0, w1, [w15]
    14b4:	02 00 3a    	bra       NZ, 0x14ba <subnormal>
    14b6:	14 00 05    	retlw.w   #0x1, w4

000014b8 <normalize>:
    14b8:	85 02 e9    	dec.w     w5, w5

000014ba <subnormal>:
    14ba:	00 00 40    	add.w     w0, w0, w0
    14bc:	81 c0 48    	addc.b    w1, w1, w1
    14be:	fc ff 3b    	bra       NN, 0x14b8 <normalize>
    14c0:	01 70 a0    	bset.w    w1, #0x7
    14c2:	24 00 05    	retlw.w   #0x2, w4

000014c4 <___floatundisf>:
    14c4:	88 9f be    	mov.d     w8, [w15++]
    14c6:	8a 9f be    	mov.d     w10, [w15++]
    14c8:	00 82 70    	ior.w     w1, w0, w4
    14ca:	04 02 71    	ior.w     w2, w4, w4
    14cc:	04 82 71    	ior.w     w3, w4, w4
    14ce:	26 00 32    	bra       Z, 0x151c <return0>
    14d0:	00 04 be    	mov.d     w0, w8
    14d2:	02 00 be    	mov.d     w2, w0
    14d4:	60 11 b8    	mul.uu    w2, #0x0, w2
    14d6:	6b 09 20    	mov.w     #0x96, w11
    14d8:	95 02 20    	mov.w     #0x29, w5
    14da:	01 82 cf    	ff1l      w1, w4
    14dc:	0a 00 39    	bra       NC, 0x14f2 <fixshift>
    14de:	05 41 b1    	sub.b     #0x10, w5
    14e0:	00 82 cf    	ff1l      w0, w4
    14e2:	07 00 39    	bra       NC, 0x14f2 <fixshift>
    14e4:	05 41 b1    	sub.b     #0x10, w5
    14e6:	09 82 cf    	ff1l      w9, w4
    14e8:	04 00 39    	bra       NC, 0x14f2 <fixshift>
    14ea:	05 41 b1    	sub.b     #0x10, w5
    14ec:	08 82 cf    	ff1l      w8, w4
    14ee:	01 00 39    	bra       NC, 0x14f2 <fixshift>
    14f0:	05 41 b1    	sub.b     #0x10, w5

000014f2 <fixshift>:
    14f2:	05 42 52    	sub.b     w4, w5, w4
    14f4:	12 00 32    	bra       Z, 0x151a <round>
    14f6:	0a 00 3b    	bra       NN, 0x150c <shiftleft>

000014f8 <shiftright>:
    14f8:	82 81 71    	ior.w     w3, w2, w3
    14fa:	61 01 64    	and.w     w8, #0x1, w2
    14fc:	81 00 d1    	lsr.w     w1, w1
    14fe:	00 80 d3    	rrc.w     w0, w0
    1500:	89 84 d3    	rrc.w     w9, w9
    1502:	08 84 d3    	rrc.w     w8, w8
    1504:	8b 05 e8    	inc.w     w11, w11
    1506:	04 42 e8    	inc.b     w4, w4
    1508:	f7 ff 3a    	bra       NZ, 0x14f8 <shiftright>
    150a:	07 00 37    	bra       0x151a <round>

0000150c <shiftleft>:
    150c:	08 04 44    	add.w     w8, w8, w8
    150e:	89 84 4c    	addc.w    w9, w9, w9
    1510:	00 00 48    	addc.w    w0, w0, w0
    1512:	81 80 48    	addc.w    w1, w1, w1
    1514:	8b 05 e9    	dec.w     w11, w11
    1516:	04 42 e9    	dec.b     w4, w4
    1518:	f9 ff 3a    	bra       NZ, 0x150c <shiftleft>

0000151a <round>:
    151a:	99 ff 07    	rcall     0x144e <__fpack>

0000151c <return0>:
    151c:	4f 05 be    	mov.d     [--w15], w10
    151e:	4f 04 be    	mov.d     [--w15], w8
    1520:	00 00 06    	return    

00001522 <___udivsi3>:
    1522:	60 22 b8    	mul.uu    w4, #0x0, w4
    1524:	06 02 20    	mov.w     #0x20, w6

00001526 <nextbit>:
    1526:	00 00 d0    	sl.w      w0, w0
    1528:	81 80 d2    	rlc.w     w1, w1
    152a:	04 82 d2    	rlc.w     w4, w4
    152c:	85 82 d2    	rlc.w     w5, w5
    152e:	00 00 a0    	bset.w    w0, #0x0
    1530:	02 02 52    	sub.w     w4, w2, w4
    1532:	83 82 5a    	subb.w    w5, w3, w5
    1534:	03 00 31    	bra       C, 0x153c <iterate>
    1536:	02 02 42    	add.w     w4, w2, w4
    1538:	83 82 4a    	addc.w    w5, w3, w5
    153a:	00 00 a1    	bclr.w    w0, #0x0

0000153c <iterate>:
    153c:	06 03 e9    	dec.w     w6, w6
    153e:	f3 ff 3a    	bra       NZ, 0x1526
    1540:	00 00 06    	return    

00001542 <___mulp32eds3>:
    1542:	02 0a b9    	mul.su    w1, w2, w4
    1544:	00 1b b9    	mul.su    w3, w0, w6
    1546:	02 00 b8    	mul.uu    w0, w2, w0
    1548:	81 00 42    	add.w     w4, w1, w1
    154a:	81 00 43    	add.w     w6, w1, w1
    154c:	00 00 06    	return    

0000154e <_fputs>:
    154e:	88 9f be    	mov.d     w8, [w15++]
    1550:	00 04 be    	mov.d     w0, w8
    1552:	05 00 37    	bra       0x155e <.L2>

00001554 <.L4>:
    1554:	00 00 fb    	se        w0, w0
    1556:	89 00 78    	mov.w     w9, w1
    1558:	19 00 07    	rcall     0x158c <_fputc>
    155a:	e1 0f 40    	add.w     w0, #0x1, [w15]
    155c:	04 00 32    	bra       Z, 0x1566 <.L3>

0000155e <.L2>:
    155e:	38 40 78    	mov.b     [w8++], w0
    1560:	e0 4f 50    	sub.b     w0, #0x0, [w15]
    1562:	f8 ff 3a    	bra       NZ, 0x1554 <.L4>
    1564:	00 00 eb    	clr.w     w0

00001566 <.L3>:
    1566:	4f 04 be    	mov.d     [--w15], w8
    1568:	00 00 06    	return    

0000156a <_puts>:
    156a:	a1 c5 20    	mov.w     #0xc5a, w1
    156c:	88 1f 78    	mov.w     w8, [w15++]
    156e:	ef ff 07    	rcall     0x154e <_fputs>
    1570:	a1 c5 20    	mov.w     #0xc5a, w1
    1572:	00 04 78    	mov.w     w0, w8
    1574:	a0 00 20    	mov.w     #0xa, w0
    1576:	0a 00 07    	rcall     0x158c <_fputc>
    1578:	08 00 78    	mov.w     w8, w0
    157a:	4f 04 78    	mov.w     [--w15], w8
    157c:	00 00 06    	return    

0000157e <__printf_0>:
    157e:	a0 c5 20    	mov.w     #0xc5a, w0
    1580:	00 00 fa    	lnk       #0x0
    1582:	68 81 57    	sub.w     w15, #0x8, w2
    1584:	cf b8 97    	mov.w     [w15-8], w1
    1586:	46 00 07    	rcall     0x1614 <__vfprintf_0>
    1588:	00 80 fa    	ulnk      
    158a:	00 00 06    	return    

0000158c <_fputc>:
    158c:	88 9f be    	mov.d     w8, [w15++]
    158e:	01 04 78    	mov.w     w1, w8
    1590:	80 84 eb    	setm.w    w9
    1592:	38 02 90    	mov.w     [w8+6], w4
    1594:	e2 02 62    	and.w     w4, #0x2, w5
    1596:	3b 00 32    	bra       Z, 0x160e <.L2>
    1598:	04 03 78    	mov.w     w4, w6
    159a:	98 02 90    	mov.w     [w8+2], w5
    159c:	06 20 b2    	and.w     #0x200, w6
    159e:	02 00 3a    	bra       NZ, 0x15a4 <.L3>
    15a0:	e0 8f 52    	sub.w     w5, #0x0, [w15]
    15a2:	35 00 3a    	bra       NZ, 0x160e <.L2>

000015a4 <.L3>:
    15a4:	04 90 a0    	bset.w    w4, #0x9
    15a6:	80 04 78    	mov.w     w0, w9
    15a8:	34 04 98    	mov.w     w4, [w8+6]
    15aa:	f9 0f b2    	and.w     #0xff, w9
    15ac:	e0 8f 52    	sub.w     w5, #0x0, [w15]
    15ae:	02 00 3a    	bra       NZ, 0x15b4 <.L4>
    15b0:	a8 02 90    	mov.w     [w8+4], w5
    15b2:	05 0c 78    	mov.w     w5, [w8]

000015b4 <.L4>:
    15b4:	ea 8f 54    	sub.w     w9, #0xa, [w15]
    15b6:	05 00 3a    	bra       NZ, 0x15c2 <.L5>
    15b8:	04 08 b2    	and.w     #0x80, w4
    15ba:	03 00 3a    	bra       NZ, 0x15c2 <.L5>
    15bc:	88 00 78    	mov.w     w8, w1
    15be:	d0 00 20    	mov.w     #0xd, w0
    15c0:	e5 ff 07    	rcall     0x158c <_fputc>

000015c2 <.L5>:
    15c2:	18 02 90    	mov.w     [w8+2], w4
    15c4:	d8 02 90    	mov.w     [w8+10], w5
    15c6:	85 0f 52    	sub.w     w4, w5, [w15]
    15c8:	0b 00 32    	bra       Z, 0x15e0 <.L6>
    15ca:	04 02 e8    	inc.w     w4, w4
    15cc:	15 c0 b3    	mov.b     #0x1, w5
    15ce:	14 04 98    	mov.w     w4, [w8+2]
    15d0:	18 02 78    	mov.w     [w8], w4
    15d2:	09 4a 78    	mov.b     w9, [w4]
    15d4:	04 0c e8    	inc.w     w4, [w8]
    15d6:	c4 c8 20    	mov.w     #0xc8c, w4
    15d8:	05 4a 78    	mov.b     w5, [w4]
    15da:	ea 8f 54    	sub.w     w9, #0xa, [w15]
    15dc:	18 00 3a    	bra       NZ, 0x160e <.L2>
    15de:	05 00 37    	bra       0x15ea <.L11>

000015e0 <.L6>:
    15e0:	09 40 78    	mov.b     w9, w0
    15e2:	88 00 78    	mov.w     w8, w1
    15e4:	be 02 07    	rcall     0x1b62 <__flsbuf>
    15e6:	80 04 78    	mov.w     w0, w9
    15e8:	12 00 37    	bra       0x160e <.L2>

000015ea <.L11>:
    15ea:	38 02 90    	mov.w     [w8+6], w4
    15ec:	04 10 b2    	and.w     #0x100, w4
    15ee:	0f 00 32    	bra       Z, 0x160e <.L2>
    15f0:	18 01 90    	mov.w     [w8+2], w2
    15f2:	a8 00 90    	mov.w     [w8+4], w1
    15f4:	48 00 90    	mov.w     [w8+8], w0
    15f6:	b1 04 07    	rcall     0x1f5a <_write>
    15f8:	18 02 90    	mov.w     [w8+2], w4
    15fa:	84 0f 50    	sub.w     w0, w4, [w15]
    15fc:	04 00 32    	bra       Z, 0x1606 <.L8>
    15fe:	38 02 90    	mov.w     [w8+6], w4
    1600:	04 03 b3    	ior.w     #0x30, w4
    1602:	34 04 98    	mov.w     w4, [w8+6]
    1604:	80 84 eb    	setm.w    w9

00001606 <.L8>:
    1606:	00 02 eb    	clr.w     w4
    1608:	14 04 98    	mov.w     w4, [w8+2]
    160a:	28 02 90    	mov.w     [w8+4], w4
    160c:	04 0c 78    	mov.w     w4, [w8]

0000160e <.L2>:
    160e:	09 00 78    	mov.w     w9, w0
    1610:	4f 04 be    	mov.d     [--w15], w8
    1612:	00 00 06    	return    

00001614 <__vfprintf_0>:
    1614:	ef 03 b0    	add.w     #0x3e, w15
    1616:	88 9f be    	mov.d     w8, [w15++]
    1618:	8a 9f be    	mov.d     w10, [w15++]
    161a:	8c 9f be    	mov.d     w12, [w15++]
    161c:	00 06 78    	mov.w     w0, w12
    161e:	8e 1f 78    	mov.w     w14, [w15++]
    1620:	80 06 eb    	clr.w     w13
    1622:	e1 af 9f    	mov.w     w1, [w15-36]
    1624:	82 b7 9f    	mov.w     w2, [w15-32]
    1626:	91 02 37    	bra       0x1b4a <.L141>

00001628 <.L115>:
    1628:	ef a8 97    	mov.w     [w15-36], w1
    162a:	54 c2 b3    	mov.b     #0x25, w4
    162c:	81 00 e8    	inc.w     w1, w1
    162e:	e1 af 9f    	mov.w     w1, [w15-36]
    1630:	84 4f 50    	sub.b     w0, w4, [w15]
    1632:	06 00 3a    	bra       NZ, 0x1640 <.L3>
    1634:	01 02 78    	mov.w     w1, w4
    1636:	80 42 eb    	clr.b     w5
    1638:	02 c3 b3    	mov.b     #0x30, w2
    163a:	01 c2 b3    	mov.b     #0x20, w1
    163c:	b0 c2 b3    	mov.b     #0x2b, w0
    163e:	0e 00 37    	bra       0x165c <.L142>

00001640 <.L3>:
    1640:	3c 02 90    	mov.w     [w12+6], w4
    1642:	04 04 b2    	and.w     #0x40, w4
    1644:	04 00 32    	bra       Z, 0x164e <.L5>
    1646:	1c 02 78    	mov.w     [w12], w4
    1648:	00 4a 78    	mov.b     w0, [w4]
    164a:	04 0e e8    	inc.w     w4, [w12]
    164c:	05 00 37    	bra       0x1658 <.L6>

0000164e <.L5>:
    164e:	00 00 fb    	se        w0, w0
    1650:	8c 00 78    	mov.w     w12, w1
    1652:	9c ff 07    	rcall     0x158c <_fputc>
    1654:	e1 0f 40    	add.w     w0, #0x1, [w15]
    1656:	79 02 32    	bra       Z, 0x1b4a <.L141>

00001658 <.L6>:
    1658:	8d 06 e8    	inc.w     w13, w13
    165a:	77 02 37    	bra       0x1b4a <.L141>

0000165c <.L142>:
    165c:	04 03 78    	mov.w     w4, w6
    165e:	d3 c2 b3    	mov.b     #0x2d, w3
    1660:	b4 43 78    	mov.b     [w4++], w7
    1662:	83 cf 53    	sub.b     w7, w3, [w15]
    1664:	09 00 32    	bra       Z, 0x1678 <.L11>
    1666:	05 00 3c    	bra       GT, 0x1672 <.L13>
    1668:	81 cf 53    	sub.b     w7, w1, [w15]
    166a:	08 00 32    	bra       Z, 0x167c <.L9>
    166c:	80 cf 53    	sub.b     w7, w0, [w15]
    166e:	0c 00 3a    	bra       NZ, 0x1688 <.L8>
    1670:	07 00 37    	bra       0x1680 <.L150>

00001672 <.L13>:
    1672:	82 cf 53    	sub.b     w7, w2, [w15]
    1674:	09 00 3a    	bra       NZ, 0x1688 <.L8>
    1676:	06 00 37    	bra       0x1684 <.L151>

00001678 <.L11>:
    1678:	05 34 a0    	bset.b    w5, #0x3
    167a:	f0 ff 37    	bra       0x165c <.L142>

0000167c <.L9>:
    167c:	05 04 a0    	bset.b    w5, #0x0
    167e:	ee ff 37    	bra       0x165c <.L142>

00001680 <.L150>:
    1680:	05 14 a0    	bset.b    w5, #0x1
    1682:	ec ff 37    	bra       0x165c <.L142>

00001684 <.L151>:
    1684:	05 24 a0    	bset.b    w5, #0x2
    1686:	ea ff 37    	bra       0x165c <.L142>

00001688 <.L8>:
    1688:	62 82 62    	and.w     w5, #0x2, w4
    168a:	01 00 32    	bra       Z, 0x168e <.L15>
    168c:	05 04 a1    	bclr.b    w5, #0x0

0000168e <.L15>:
    168e:	68 82 62    	and.w     w5, #0x8, w4
    1690:	01 00 32    	bra       Z, 0x1694 <.L16>
    1692:	05 24 a1    	bclr.b    w5, #0x2

00001694 <.L16>:
    1694:	07 02 fb    	se        w7, w4
    1696:	04 03 b1    	sub.w     #0x30, w4
    1698:	e9 0f 52    	sub.w     w4, #0x9, [w15]
    169a:	0c 00 3e    	bra       GTU, 0x16b4 <.L17>
    169c:	86 03 78    	mov.w     w6, w7
    169e:	00 02 eb    	clr.w     w4

000016a0 <.L18>:
    16a0:	6a 20 b9    	mul.su    w4, #0xa, w0
    16a2:	37 02 fb    	se        [w7++], w4
    16a4:	04 03 b1    	sub.w     #0x30, w4
    16a6:	07 03 78    	mov.w     w7, w6
    16a8:	00 02 42    	add.w     w4, w0, w4
    16aa:	17 00 fb    	se        [w7], w0
    16ac:	00 03 b1    	sub.w     #0x30, w0
    16ae:	e9 0f 50    	sub.w     w0, #0x9, [w15]
    16b0:	f7 ff 36    	bra       LEU, 0x16a0 <.L18>
    16b2:	08 00 37    	bra       0x16c4 <.L19>

000016b4 <.L17>:
    16b4:	00 02 eb    	clr.w     w4
    16b6:	a0 c2 b3    	mov.b     #0x2a, w0
    16b8:	80 cf 53    	sub.b     w7, w0, [w15]
    16ba:	04 00 3a    	bra       NZ, 0x16c4 <.L19>
    16bc:	8f b3 97    	mov.w     [w15-32], w7
    16be:	06 03 e8    	inc.w     w6, w6
    16c0:	47 02 78    	mov.w     [--w7], w4
    16c2:	87 b7 9f    	mov.w     w7, [w15-32]

000016c4 <.L19>:
    16c4:	00 07 eb    	clr.w     w14
    16c6:	e7 c2 b3    	mov.b     #0x2e, w7
    16c8:	96 cf 13    	subr.b    w7, [w6], [w15]
    16ca:	09 00 3a    	bra       NZ, 0x16de <.L20>
    16cc:	e4 c3 53    	sub.b     w7, #0x4, w7
    16ce:	d6 cf 13    	subr.b    w7, [++w6], [w15]
    16d0:	02 00 32    	bra       Z, 0x16d6 <.L21>
    16d2:	86 03 78    	mov.w     w6, w7
    16d4:	0a 00 37    	bra       0x16ea <.L22>

000016d6 <.L21>:
    16d6:	0f b0 97    	mov.w     [w15-32], w0
    16d8:	06 03 e8    	inc.w     w6, w6
    16da:	40 07 78    	mov.w     [--w0], w14
    16dc:	80 b7 9f    	mov.w     w0, [w15-32]

000016de <.L20>:
    16de:	86 03 78    	mov.w     w6, w7
    16e0:	31 c6 b3    	mov.b     #0x63, w1
    16e2:	c0 c6 b3    	mov.b     #0x6c, w0
    16e4:	08 00 37    	bra       0x16f6 <.L23>

000016e6 <.L24>:
    16e6:	6a 71 b9    	mul.su    w14, #0xa, w2
    16e8:	02 07 40    	add.w     w0, w2, w14

000016ea <.L22>:
    16ea:	07 03 78    	mov.w     w7, w6
    16ec:	37 00 fb    	se        [w7++], w0
    16ee:	00 03 b1    	sub.w     #0x30, w0
    16f0:	e9 0f 50    	sub.w     w0, #0x9, [w15]
    16f2:	f9 ff 36    	bra       LEU, 0x16e6 <.L24>
    16f4:	f4 ff 37    	bra       0x16de <.L20>

000016f6 <.L23>:
    16f6:	07 01 78    	mov.w     w7, w2
    16f8:	33 c7 b3    	mov.b     #0x73, w3
    16fa:	32 43 78    	mov.b     [w2++], w6
    16fc:	82 03 78    	mov.w     w2, w7
    16fe:	83 4f 53    	sub.b     w6, w3, [w15]
    1700:	1a 00 32    	bra       Z, 0x1736 <.L29>
    1702:	08 00 3c    	bra       GT, 0x1714 <.L32>
    1704:	81 4f 53    	sub.b     w6, w1, [w15]
    1706:	7b 00 32    	bra       Z, 0x17fe <.L27>
    1708:	80 4f 53    	sub.b     w6, w0, [w15]
    170a:	0c 00 32    	bra       Z, 0x1724 <.L28>
    170c:	e2 af 9f    	mov.w     w2, [w15-36]
    170e:	e0 4f 53    	sub.b     w6, #0x0, [w15]
    1710:	21 02 32    	bra       Z, 0x1b54 <.L26>
    1712:	97 00 37    	bra       0x1842 <.L25>

00001714 <.L32>:
    1714:	e2 af 9f    	mov.w     w2, [w15-36]
    1716:	57 c7 b3    	mov.b     #0x75, w7
    1718:	87 4f 53    	sub.b     w6, w7, [w15]
    171a:	98 00 32    	bra       Z, 0x184c <.L30>
    171c:	e3 c3 43    	add.b     w7, #0x3, w7
    171e:	87 4f 53    	sub.b     w6, w7, [w15]
    1720:	90 00 3a    	bra       NZ, 0x1842 <.L25>
    1722:	06 00 37    	bra       0x1730 <.L152>

00001724 <.L28>:
    1724:	70 81 62    	and.w     w5, #0x10, w2
    1726:	06 c1 b3    	mov.b     #0x10, w6
    1728:	01 00 32    	bra       Z, 0x172c <.L33>
    172a:	00 43 eb    	clr.b     w6

0000172c <.L33>:
    172c:	86 c2 72    	ior.b     w5, w6, w5
    172e:	e3 ff 37    	bra       0x16f6 <.L23>

00001730 <.L152>:
    1730:	e6 77 9f    	mov.b     w6, [w15-74]
    1732:	05 74 a0    	bset.b    w5, #0x7
    1734:	8e 00 37    	bra       0x1852 <.L34>

00001736 <.L29>:
    1736:	8f b3 97    	mov.w     [w15-32], w7
    1738:	36 c7 b3    	mov.b     #0x73, w6
    173a:	e2 af 9f    	mov.w     w2, [w15-36]
    173c:	e6 77 9f    	mov.b     w6, [w15-74]
    173e:	47 03 78    	mov.w     [--w7], w6
    1740:	87 b7 9f    	mov.w     w7, [w15-32]
    1742:	06 04 78    	mov.w     w6, w8
    1744:	e0 0f 53    	sub.w     w6, #0x0, [w15]
    1746:	01 00 3a    	bra       NZ, 0x174a <.L35>
    1748:	28 c7 20    	mov.w     #0xc72, w8

0000174a <.L35>:
    174a:	88 03 78    	mov.w     w8, w7
    174c:	00 03 eb    	clr.w     w6
    174e:	01 00 37    	bra       0x1752 <.L36>

00001750 <.L37>:
    1750:	06 03 e8    	inc.w     w6, w6

00001752 <.L36>:
    1752:	67 40 7b    	mov.b     [w7+w6], w0
    1754:	e0 4f 50    	sub.b     w0, #0x0, [w15]
    1756:	fc ff 3a    	bra       NZ, 0x1750 <.L37>
    1758:	86 04 78    	mov.w     w6, w9

0000175a <.L38>:
    175a:	e0 0f 57    	sub.w     w14, #0x0, [w15]
    175c:	03 00 32    	bra       Z, 0x1764 <.L39>
    175e:	89 0f 57    	sub.w     w14, w9, [w15]
    1760:	01 00 31    	bra       C, 0x1764 <.L39>
    1762:	8e 04 78    	mov.w     w14, w9

00001764 <.L39>:
    1764:	00 07 eb    	clr.w     w14
    1766:	89 0f 52    	sub.w     w4, w9, [w15]
    1768:	01 00 36    	bra       LEU, 0x176c <.L40>
    176a:	09 07 52    	sub.w     w4, w9, w14

0000176c <.L40>:
    176c:	e8 82 62    	and.w     w5, #0x8, w5
    176e:	04 c2 b3    	mov.b     #0x20, w4
    1770:	95 b7 9f    	mov.w     w5, [w15-30]
    1772:	11 00 32    	bra       Z, 0x1796 <.L42>
    1774:	28 00 37    	bra       0x17c6 <.L140>

00001776 <.L47>:
    1776:	bc 02 90    	mov.w     [w12+6], w5
    1778:	05 04 b2    	and.w     #0x40, w5
    177a:	04 00 32    	bra       Z, 0x1784 <.L44>
    177c:	9c 02 78    	mov.w     [w12], w5
    177e:	84 4a 78    	mov.b     w4, [w5]
    1780:	05 0e e8    	inc.w     w5, [w12]
    1782:	07 00 37    	bra       0x1792 <.L45>

00001784 <.L44>:
    1784:	84 bf 9f    	mov.w     w4, [w15-16]
    1786:	8c 00 78    	mov.w     w12, w1
    1788:	00 02 20    	mov.w     #0x20, w0
    178a:	00 ff 07    	rcall     0x158c <_fputc>
    178c:	0f ba 97    	mov.w     [w15-16], w4
    178e:	e1 0f 40    	add.w     w0, #0x1, [w15]
    1790:	01 00 32    	bra       Z, 0x1794 <.L46>

00001792 <.L45>:
    1792:	8d 06 e8    	inc.w     w13, w13

00001794 <.L46>:
    1794:	0e 07 e9    	dec.w     w14, w14

00001796 <.L42>:
    1796:	e0 0f 57    	sub.w     w14, #0x0, [w15]
    1798:	ee ff 3a    	bra       NZ, 0x1776 <.L47>
    179a:	00 87 eb    	setm.w    w14
    179c:	14 00 37    	bra       0x17c6 <.L140>

0000179e <.L51>:
    179e:	3c 02 90    	mov.w     [w12+6], w4
    17a0:	04 04 b2    	and.w     #0x40, w4
    17a2:	09 00 32    	bra       Z, 0x17b6 <.L48>
    17a4:	08 02 78    	mov.w     w8, w4
    17a6:	1c 03 78    	mov.w     [w12], w6
    17a8:	b4 42 78    	mov.b     [w4++], w5
    17aa:	05 4b 78    	mov.b     w5, [w6]
    17ac:	04 04 78    	mov.w     w4, w8
    17ae:	06 0e e8    	inc.w     w6, [w12]
    17b0:	e0 cf 52    	sub.b     w5, #0x0, [w15]
    17b2:	08 00 3a    	bra       NZ, 0x17c4 <.L49>
    17b4:	08 00 37    	bra       0x17c6 <.L140>

000017b6 <.L48>:
    17b6:	08 02 78    	mov.w     w8, w4
    17b8:	8c 00 78    	mov.w     w12, w1
    17ba:	34 00 fb    	se        [w4++], w0
    17bc:	04 04 78    	mov.w     w4, w8
    17be:	e6 fe 07    	rcall     0x158c <_fputc>
    17c0:	e1 0f 40    	add.w     w0, #0x1, [w15]
    17c2:	01 00 32    	bra       Z, 0x17c6 <.L140>

000017c4 <.L49>:
    17c4:	8d 06 e8    	inc.w     w13, w13

000017c6 <.L140>:
    17c6:	09 02 78    	mov.w     w9, w4
    17c8:	84 04 e9    	dec.w     w4, w9
    17ca:	e0 0f 52    	sub.w     w4, #0x0, [w15]
    17cc:	e8 ff 3a    	bra       NZ, 0x179e <.L51>
    17ce:	1f b0 97    	mov.w     [w15-30], w0
    17d0:	04 c2 b3    	mov.b     #0x20, w4
    17d2:	e0 0f 50    	sub.w     w0, #0x0, [w15]
    17d4:	11 00 3a    	bra       NZ, 0x17f8 <.L52>
    17d6:	b9 01 37    	bra       0x1b4a <.L141>

000017d8 <.L56>:
    17d8:	bc 02 90    	mov.w     [w12+6], w5
    17da:	05 04 b2    	and.w     #0x40, w5
    17dc:	04 00 32    	bra       Z, 0x17e6 <.L53>
    17de:	9c 02 78    	mov.w     [w12], w5
    17e0:	84 4a 78    	mov.b     w4, [w5]
    17e2:	05 0e e8    	inc.w     w5, [w12]
    17e4:	07 00 37    	bra       0x17f4 <.L54>

000017e6 <.L53>:
    17e6:	84 bf 9f    	mov.w     w4, [w15-16]
    17e8:	8c 00 78    	mov.w     w12, w1
    17ea:	00 02 20    	mov.w     #0x20, w0
    17ec:	cf fe 07    	rcall     0x158c <_fputc>
    17ee:	0f ba 97    	mov.w     [w15-16], w4
    17f0:	e1 0f 40    	add.w     w0, #0x1, [w15]
    17f2:	01 00 32    	bra       Z, 0x17f6 <.L55>

000017f4 <.L54>:
    17f4:	8d 06 e8    	inc.w     w13, w13

000017f6 <.L55>:
    17f6:	0e 07 e9    	dec.w     w14, w14

000017f8 <.L52>:
    17f8:	e0 0f 57    	sub.w     w14, #0x0, [w15]
    17fa:	ee ff 3a    	bra       NZ, 0x17d8 <.L56>
    17fc:	a6 01 37    	bra       0x1b4a <.L141>

000017fe <.L27>:
    17fe:	8f b0 97    	mov.w     [w15-32], w1
    1800:	e2 af 9f    	mov.w     w2, [w15-36]
    1802:	f0 83 62    	and.w     w5, #0x10, w7
    1804:	41 03 78    	mov.w     [--w1], w6
    1806:	81 b7 9f    	mov.w     w1, [w15-32]
    1808:	06 00 78    	mov.w     w6, w0
    180a:	cf 80 de    	asr.w     w0, #0xf, w1
    180c:	01 01 78    	mov.w     w1, w2
    180e:	82 01 78    	mov.w     w2, w3
    1810:	90 b7 9f    	mov.w     w0, [w15-30]
    1812:	a1 b7 9f    	mov.w     w1, [w15-28]
    1814:	b2 b7 9f    	mov.w     w2, [w15-26]
    1816:	c3 b7 9f    	mov.w     w3, [w15-24]
    1818:	48 00 de    	lsr.w     w0, #0x8, w0
    181a:	48 0b dd    	sl.w      w1, #0x8, w6
    181c:	00 00 73    	ior.w     w6, w0, w0
    181e:	e0 77 9f    	mov.b     w0, [w15-74]
    1820:	e0 8f 53    	sub.w     w7, #0x0, [w15]
    1822:	09 00 32    	bra       Z, 0x1836 <.L57>
    1824:	e0 4f 50    	sub.b     w0, #0x0, [w15]
    1826:	07 00 32    	bra       Z, 0x1836 <.L57>
    1828:	e1 4f 40    	add.b     w0, #0x1, [w15]
    182a:	05 00 32    	bra       Z, 0x1836 <.L57>
    182c:	af e3 97    	mov.b     [w15-30], w7
    182e:	f0 77 9f    	mov.b     w0, [w15-73]
    1830:	87 7f 9f    	mov.b     w7, [w15-72]
    1832:	29 00 20    	mov.w     #0x2, w9
    1834:	03 00 37    	bra       0x183c <.L58>

00001836 <.L57>:
    1836:	2f e0 97    	mov.b     [w15-30], w0
    1838:	19 00 20    	mov.w     #0x1, w9
    183a:	f0 77 9f    	mov.b     w0, [w15-73]

0000183c <.L58>:
    183c:	78 fb 2f    	mov.w     #0xffb7, w8
    183e:	0f 04 44    	add.w     w8, w15, w8
    1840:	8c ff 37    	bra       0x175a <.L38>

00001842 <.L25>:
    1842:	e6 77 9f    	mov.b     w6, [w15-74]
    1844:	68 fb 2f    	mov.w     #0xffb6, w8
    1846:	0f 04 44    	add.w     w8, w15, w8
    1848:	19 00 20    	mov.w     #0x1, w9
    184a:	87 ff 37    	bra       0x175a <.L38>

0000184c <.L30>:
    184c:	e6 77 9f    	mov.b     w6, [w15-74]
    184e:	06 cc b3    	mov.b     #0xc0, w6
    1850:	86 c2 72    	ior.b     w5, w6, w5

00001852 <.L34>:
    1852:	85 82 fb    	ze        w5, w5
    1854:	f0 80 62    	and.w     w5, #0x10, w1
    1856:	95 b7 9f    	mov.w     w5, [w15-30]
    1858:	f1 9f 9f    	mov.w     w1, [w15-66]
    185a:	0e 00 32    	bra       Z, 0x1878 <.L59>
    185c:	8f b2 97    	mov.w     [w15-32], w5
    185e:	00 03 eb    	clr.w     w6
    1860:	45 01 be    	mov.d     [--w5], w2
    1862:	80 03 eb    	clr.w     w7
    1864:	d2 a7 9f    	mov.w     w2, [w15-54]
    1866:	e3 a7 9f    	mov.w     w3, [w15-52]
    1868:	f6 a7 9f    	mov.w     w6, [w15-50]
    186a:	87 af 9f    	mov.w     w7, [w15-48]
    186c:	85 b7 9f    	mov.w     w5, [w15-32]
    186e:	5f a4 97    	mov.w     [w15-54], w8
    1870:	ef a4 97    	mov.w     [w15-52], w9
    1872:	7f a5 97    	mov.w     [w15-50], w10
    1874:	8f ad 97    	mov.w     [w15-48], w11
    1876:	06 00 37    	bra       0x1884 <.L60>

00001878 <.L59>:
    1878:	0f b0 97    	mov.w     [w15-32], w0
    187a:	40 04 78    	mov.w     [--w0], w8
    187c:	80 b7 9f    	mov.w     w0, [w15-32]
    187e:	09 00 20    	mov.w     #0x0, w9
    1880:	0a 00 20    	mov.w     #0x0, w10
    1882:	0b 00 20    	mov.w     #0x0, w11

00001884 <.L60>:
    1884:	e0 0f 57    	sub.w     w14, #0x0, [w15]
    1886:	07 00 3a    	bra       NZ, 0x1896 <.L61>
    1888:	1e 00 20    	mov.w     #0x1, w14
    188a:	e0 0f 54    	sub.w     w8, #0x0, [w15]
    188c:	e0 8f 5c    	subb.w    w9, #0x0, [w15]
    188e:	e0 0f 5d    	subb.w    w10, #0x0, [w15]
    1890:	e0 8f 5d    	subb.w    w11, #0x0, [w15]
    1892:	01 00 32    	bra       Z, 0x1896 <.L61>
    1894:	00 07 eb    	clr.w     w14

00001896 <.L61>:
    1896:	9f b0 97    	mov.w     [w15-30], w1
    1898:	05 08 20    	mov.w     #0x80, w5
    189a:	01 0c b2    	and.w     #0xc0, w1
    189c:	91 af 9f    	mov.w     w1, [w15-46]
    189e:	85 8f 50    	sub.w     w1, w5, [w15]
    18a0:	10 00 32    	bra       Z, 0x18c2 <.L64>
    18a2:	05 0c 20    	mov.w     #0xc0, w5
    18a4:	85 8f 50    	sub.w     w1, w5, [w15]
    18a6:	21 00 3a    	bra       NZ, 0x18ea <.L63>
    18a8:	66 bb 20    	mov.w     #0xbb6, w6
    18aa:	15 c0 b3    	mov.b     #0x1, w5

000018ac <.L67>:
    18ac:	36 00 be    	mov.d     [w6++], w0
    18ae:	36 01 be    	mov.d     [w6++], w2
    18b0:	00 40 e1    	cp.w      w8, w0
    18b2:	01 c8 e1    	cpb.w     w9, w1
    18b4:	02 d0 e1    	cpb.w     w10, w2
    18b6:	03 d8 e1    	cpb.w     w11, w3
    18b8:	17 00 39    	bra       NC, 0x18e8 <.L144>
    18ba:	85 42 e8    	inc.b     w5, w5
    18bc:	f4 cf 52    	sub.b     w5, #0x14, [w15]
    18be:	f6 ff 3a    	bra       NZ, 0x18ac <.L67>
    18c0:	13 00 37    	bra       0x18e8 <.L144>

000018c2 <.L64>:
    18c2:	15 c0 b3    	mov.b     #0x1, w5
    18c4:	00 01 20    	mov.w     #0x10, w0
    18c6:	01 00 20    	mov.w     #0x0, w1
    18c8:	60 11 b8    	mul.uu    w2, #0x0, w2

000018ca <.L69>:
    18ca:	00 40 e1    	cp.w      w8, w0
    18cc:	01 c8 e1    	cpb.w     w9, w1
    18ce:	02 d0 e1    	cpb.w     w10, w2
    18d0:	03 d8 e1    	cpb.w     w11, w3
    18d2:	0a 00 39    	bra       NC, 0x18e8 <.L144>
    18d4:	46 00 20    	mov.w     #0x4, w6

000018d6 <.LB557>:
    18d6:	00 00 d0    	sl.w      w0, w0
    18d8:	81 80 d2    	rlc.w     w1, w1
    18da:	02 81 d2    	rlc.w     w2, w2
    18dc:	83 81 d2    	rlc.w     w3, w3
    18de:	06 03 e9    	dec.w     w6, w6
    18e0:	fa ff 3a    	bra       NZ, 0x18d6 <.LB557>
    18e2:	85 42 e8    	inc.b     w5, w5
    18e4:	f0 cf 52    	sub.b     w5, #0x10, [w15]
    18e6:	f1 ff 3a    	bra       NZ, 0x18ca <.L69>

000018e8 <.L144>:
    18e8:	e5 77 9f    	mov.b     w5, [w15-74]

000018ea <.L63>:
    18ea:	ef 73 97    	mov.b     [w15-74], w7
    18ec:	87 02 fb    	se        w7, w5
    18ee:	8e 8f 52    	sub.w     w5, w14, [w15]
    18f0:	02 00 3d    	bra       GE, 0x18f6 <.L70>
    18f2:	ee 77 9f    	mov.b     w14, [w15-74]
    18f4:	03 00 37    	bra       0x18fc <.L71>

000018f6 <.L70>:
    18f6:	85 0f 57    	sub.w     w14, w5, [w15]
    18f8:	01 00 3d    	bra       GE, 0x18fc <.L71>
    18fa:	05 07 78    	mov.w     w5, w14

000018fc <.L71>:
    18fc:	e0 0f 52    	sub.w     w4, #0x0, [w15]
    18fe:	04 00 32    	bra       Z, 0x1908 <.L73>
    1900:	9f b0 97    	mov.w     [w15-30], w1
    1902:	e3 82 60    	and.w     w1, #0x3, w5
    1904:	01 00 32    	bra       Z, 0x1908 <.L73>
    1906:	04 02 e9    	dec.w     w4, w4

00001908 <.L73>:
    1908:	6f 71 97    	mov.b     [w15-74], w2
    190a:	80 01 eb    	clr.w     w3
    190c:	82 02 fb    	se        w2, w5
    190e:	f3 af 9f    	mov.w     w3, [w15-34]
    1910:	85 0f 52    	sub.w     w4, w5, [w15]
    1912:	02 00 34    	bra       LE, 0x1918 <.L74>
    1914:	85 02 52    	sub.w     w4, w5, w5
    1916:	f5 af 9f    	mov.w     w5, [w15-34]

00001918 <.L74>:
    1918:	9f b2 97    	mov.w     [w15-30], w5
    191a:	64 82 62    	and.w     w5, #0x4, w4
    191c:	46 00 32    	bra       Z, 0x19aa <.L75>
    191e:	05 03 78    	mov.w     w5, w6
    1920:	e2 02 63    	and.w     w6, #0x2, w5
    1922:	61 02 63    	and.w     w6, #0x1, w4
    1924:	e0 8f 52    	sub.w     w5, #0x0, [w15]
    1926:	11 00 32    	bra       Z, 0x194a <.L76>
    1928:	bc 02 90    	mov.w     [w12+6], w5
    192a:	05 04 b2    	and.w     #0x40, w5
    192c:	08 00 32    	bra       Z, 0x193e <.L77>
    192e:	9c 02 78    	mov.w     [w12], w5
    1930:	b6 c2 b3    	mov.b     #0x2b, w6
    1932:	e0 0f 52    	sub.w     w4, #0x0, [w15]
    1934:	01 00 32    	bra       Z, 0x1938 <.L78>
    1936:	06 c3 e8    	inc2.b    w6, w6

00001938 <.L78>:
    1938:	86 4a 78    	mov.b     w6, [w5]
    193a:	05 0e e8    	inc.w     w5, [w12]
    193c:	15 00 37    	bra       0x1968 <.L83>

0000193e <.L77>:
    193e:	b0 02 20    	mov.w     #0x2b, w0
    1940:	e0 0f 52    	sub.w     w4, #0x0, [w15]
    1942:	01 00 32    	bra       Z, 0x1946 <.L80>
    1944:	00 80 e8    	inc2.w    w0, w0

00001946 <.L80>:
    1946:	8c 00 78    	mov.w     w12, w1
    1948:	0c 00 37    	bra       0x1962 <.L147>

0000194a <.L76>:
    194a:	e0 0f 52    	sub.w     w4, #0x0, [w15]
    194c:	0e 00 32    	bra       Z, 0x196a <.L81>
    194e:	3c 02 90    	mov.w     [w12+6], w4
    1950:	04 04 b2    	and.w     #0x40, w4
    1952:	05 00 32    	bra       Z, 0x195e <.L82>
    1954:	1c 02 78    	mov.w     [w12], w4
    1956:	05 c2 b3    	mov.b     #0x20, w5
    1958:	05 4a 78    	mov.b     w5, [w4]
    195a:	04 0e e8    	inc.w     w4, [w12]
    195c:	05 00 37    	bra       0x1968 <.L83>

0000195e <.L82>:
    195e:	8c 00 78    	mov.w     w12, w1
    1960:	00 02 20    	mov.w     #0x20, w0

00001962 <.L147>:
    1962:	14 fe 07    	rcall     0x158c <_fputc>
    1964:	e1 0f 40    	add.w     w0, #0x1, [w15]
    1966:	01 00 32    	bra       Z, 0x196a <.L81>

00001968 <.L83>:
    1968:	8d 06 e8    	inc.w     w13, w13

0000196a <.L81>:
    196a:	ff ab 97    	mov.w     [w15-34], w7
    196c:	e0 8f 53    	sub.w     w7, #0x0, [w15]
    196e:	65 00 32    	bra       Z, 0x1a3a <.L84>
    1970:	a8 af 9f    	mov.w     w8, [w15-44]
    1972:	b9 af 9f    	mov.w     w9, [w15-42]
    1974:	ca af 9f    	mov.w     w10, [w15-40]
    1976:	db af 9f    	mov.w     w11, [w15-38]
    1978:	04 c3 b3    	mov.b     #0x30, w4
    197a:	87 04 78    	mov.w     w7, w9

0000197c <.L130>:
    197c:	bc 02 90    	mov.w     [w12+6], w5
    197e:	05 04 b2    	and.w     #0x40, w5
    1980:	04 00 32    	bra       Z, 0x198a <.L85>
    1982:	9c 02 78    	mov.w     [w12], w5
    1984:	84 4a 78    	mov.b     w4, [w5]
    1986:	05 0e e8    	inc.w     w5, [w12]
    1988:	07 00 37    	bra       0x1998 <.L86>

0000198a <.L85>:
    198a:	84 bf 9f    	mov.w     w4, [w15-16]
    198c:	8c 00 78    	mov.w     w12, w1
    198e:	00 03 20    	mov.w     #0x30, w0
    1990:	fd fd 07    	rcall     0x158c <_fputc>
    1992:	0f ba 97    	mov.w     [w15-16], w4
    1994:	e1 0f 40    	add.w     w0, #0x1, [w15]
    1996:	01 00 32    	bra       Z, 0x199a <.L87>

00001998 <.L86>:
    1998:	8d 06 e8    	inc.w     w13, w13

0000199a <.L87>:
    199a:	89 04 e9    	dec.w     w9, w9
    199c:	ef ff 3a    	bra       NZ, 0x197c <.L130>
    199e:	f9 af 9f    	mov.w     w9, [w15-34]
    19a0:	2f ac 97    	mov.w     [w15-44], w8
    19a2:	bf ac 97    	mov.w     [w15-42], w9
    19a4:	4f ad 97    	mov.w     [w15-40], w10
    19a6:	df ad 97    	mov.w     [w15-38], w11
    19a8:	48 00 37    	bra       0x1a3a <.L84>

000019aa <.L75>:
    19aa:	ff a8 97    	mov.w     [w15-34], w1
    19ac:	e0 8f 50    	sub.w     w1, #0x0, [w15]
    19ae:	1f 00 32    	bra       Z, 0x19ee <.L89>
    19b0:	1f b1 97    	mov.w     [w15-30], w2
    19b2:	68 02 61    	and.w     w2, #0x8, w4
    19b4:	1c 00 3a    	bra       NZ, 0x19ee <.L89>
    19b6:	a8 af 9f    	mov.w     w8, [w15-44]
    19b8:	b9 af 9f    	mov.w     w9, [w15-42]
    19ba:	ca af 9f    	mov.w     w10, [w15-40]
    19bc:	db af 9f    	mov.w     w11, [w15-38]
    19be:	ff ac 97    	mov.w     [w15-34], w9
    19c0:	04 c2 b3    	mov.b     #0x20, w4

000019c2 <.L131>:
    19c2:	bc 02 90    	mov.w     [w12+6], w5
    19c4:	05 04 b2    	and.w     #0x40, w5
    19c6:	04 00 32    	bra       Z, 0x19d0 <.L90>
    19c8:	9c 02 78    	mov.w     [w12], w5
    19ca:	84 4a 78    	mov.b     w4, [w5]
    19cc:	05 0e e8    	inc.w     w5, [w12]
    19ce:	07 00 37    	bra       0x19de <.L91>

000019d0 <.L90>:
    19d0:	84 bf 9f    	mov.w     w4, [w15-16]
    19d2:	8c 00 78    	mov.w     w12, w1
    19d4:	00 02 20    	mov.w     #0x20, w0
    19d6:	da fd 07    	rcall     0x158c <_fputc>
    19d8:	0f ba 97    	mov.w     [w15-16], w4
    19da:	e1 0f 40    	add.w     w0, #0x1, [w15]
    19dc:	01 00 32    	bra       Z, 0x19e0 <.L92>

000019de <.L91>:
    19de:	8d 06 e8    	inc.w     w13, w13

000019e0 <.L92>:
    19e0:	89 04 e9    	dec.w     w9, w9
    19e2:	ef ff 3a    	bra       NZ, 0x19c2 <.L131>
    19e4:	f9 af 9f    	mov.w     w9, [w15-34]
    19e6:	2f ac 97    	mov.w     [w15-44], w8
    19e8:	bf ac 97    	mov.w     [w15-42], w9
    19ea:	4f ad 97    	mov.w     [w15-40], w10
    19ec:	df ad 97    	mov.w     [w15-38], w11

000019ee <.L89>:
    19ee:	9f b0 97    	mov.w     [w15-30], w1
    19f0:	e2 82 60    	and.w     w1, #0x2, w5
    19f2:	61 82 60    	and.w     w1, #0x1, w4
    19f4:	e0 8f 52    	sub.w     w5, #0x0, [w15]
    19f6:	11 00 32    	bra       Z, 0x1a1a <.L94>
    19f8:	bc 02 90    	mov.w     [w12+6], w5
    19fa:	05 04 b2    	and.w     #0x40, w5
    19fc:	08 00 32    	bra       Z, 0x1a0e <.L95>
    19fe:	9c 02 78    	mov.w     [w12], w5
    1a00:	b6 c2 b3    	mov.b     #0x2b, w6
    1a02:	e0 0f 52    	sub.w     w4, #0x0, [w15]
    1a04:	01 00 32    	bra       Z, 0x1a08 <.L96>
    1a06:	06 c3 e8    	inc2.b    w6, w6

00001a08 <.L96>:
    1a08:	86 4a 78    	mov.b     w6, [w5]
    1a0a:	05 0e e8    	inc.w     w5, [w12]
    1a0c:	15 00 37    	bra       0x1a38 <.L100>

00001a0e <.L95>:
    1a0e:	b0 02 20    	mov.w     #0x2b, w0
    1a10:	e0 0f 52    	sub.w     w4, #0x0, [w15]
    1a12:	01 00 32    	bra       Z, 0x1a16 <.L98>
    1a14:	00 80 e8    	inc2.w    w0, w0

00001a16 <.L98>:
    1a16:	8c 00 78    	mov.w     w12, w1
    1a18:	0c 00 37    	bra       0x1a32 <.L149>

00001a1a <.L94>:
    1a1a:	e0 0f 52    	sub.w     w4, #0x0, [w15]
    1a1c:	0e 00 32    	bra       Z, 0x1a3a <.L84>
    1a1e:	3c 02 90    	mov.w     [w12+6], w4
    1a20:	04 04 b2    	and.w     #0x40, w4
    1a22:	05 00 32    	bra       Z, 0x1a2e <.L99>
    1a24:	1c 02 78    	mov.w     [w12], w4
    1a26:	05 c2 b3    	mov.b     #0x20, w5
    1a28:	05 4a 78    	mov.b     w5, [w4]
    1a2a:	04 0e e8    	inc.w     w4, [w12]
    1a2c:	05 00 37    	bra       0x1a38 <.L100>

00001a2e <.L99>:
    1a2e:	8c 00 78    	mov.w     w12, w1
    1a30:	00 02 20    	mov.w     #0x20, w0

00001a32 <.L149>:
    1a32:	ac fd 07    	rcall     0x158c <_fputc>
    1a34:	e1 0f 40    	add.w     w0, #0x1, [w15]
    1a36:	01 00 32    	bra       Z, 0x1a3a <.L84>

00001a38 <.L100>:
    1a38:	8d 06 e8    	inc.w     w13, w13

00001a3a <.L84>:
    1a3a:	8e 02 e9    	dec.w     w14, w5
    1a3c:	e4 ba 20    	mov.w     #0xbae, w4
    1a3e:	42 29 dd    	sl.w      w5, #0x2, w2
    1a40:	c3 2a dd    	sl.w      w5, #0x3, w5
    1a42:	82 a7 9f    	mov.w     w2, [w15-64]
    1a44:	04 82 42    	add.w     w5, w4, w4
    1a46:	5d 00 37    	bra       0x1b02 <.L145>

00001a48 <.L110>:
    1a48:	0e 07 e9    	dec.w     w14, w14
    1a4a:	9f a9 97    	mov.w     [w15-46], w3
    1a4c:	04 08 20    	mov.w     #0x80, w4
    1a4e:	84 8f 51    	sub.w     w3, w4, [w15]
    1a50:	34 00 32    	bra       Z, 0x1aba <.L103>
    1a52:	04 0c 20    	mov.w     #0xc0, w4
    1a54:	84 8f 51    	sub.w     w3, w4, [w15]
    1a56:	3f 00 3a    	bra       NZ, 0x1ad6 <.L102>
    1a58:	ff 9a 97    	mov.w     [w15-66], w5
    1a5a:	e0 8f 52    	sub.w     w5, #0x0, [w15]
    1a5c:	22 00 32    	bra       Z, 0x1aa2 <.L105>
    1a5e:	2f a8 97    	mov.w     [w15-44], w0
    1a60:	d8 9f 9f    	mov.w     w8, [w15-70]
    1a62:	e9 9f 9f    	mov.w     w9, [w15-68]
    1a64:	30 02 be    	mov.d     [w0++], w4
    1a66:	20 03 be    	mov.d     [w0--], w6
    1a68:	08 00 be    	mov.d     w8, w0
    1a6a:	04 01 be    	mov.d     w4, w2
    1a6c:	84 bf 9f    	mov.w     w4, [w15-16]
    1a6e:	d5 b7 9f    	mov.w     w5, [w15-22]
    1a70:	e6 b7 9f    	mov.w     w6, [w15-20]
    1a72:	f7 b7 9f    	mov.w     w7, [w15-18]
    1a74:	56 fd 07    	rcall     0x1522 <___udivsi3>
    1a76:	0f ba 97    	mov.w     [w15-16], w4
    1a78:	e0 77 9f    	mov.b     w0, [w15-74]
    1a7a:	df b2 97    	mov.w     [w15-22], w5
    1a7c:	00 00 fb    	se        w0, w0
    1a7e:	cf 80 de    	asr.w     w0, #0xf, w1
    1a80:	04 01 be    	mov.d     w4, w2
    1a82:	5f fd 07    	rcall     0x1542 <___mulp32eds3>
    1a84:	5f 99 97    	mov.w     [w15-70], w2
    1a86:	ef 99 97    	mov.w     [w15-68], w3
    1a88:	00 02 eb    	clr.w     w4
    1a8a:	00 01 51    	sub.w     w2, w0, w2
    1a8c:	81 81 59    	subb.w    w3, w1, w3
    1a8e:	c4 a7 9f    	mov.w     w4, [w15-56]
    1a90:	92 a7 9f    	mov.w     w2, [w15-62]
    1a92:	a3 a7 9f    	mov.w     w3, [w15-60]
    1a94:	80 01 eb    	clr.w     w3
    1a96:	b3 a7 9f    	mov.w     w3, [w15-58]
    1a98:	1f a4 97    	mov.w     [w15-62], w8
    1a9a:	af a4 97    	mov.w     [w15-60], w9
    1a9c:	3f a5 97    	mov.w     [w15-58], w10
    1a9e:	cf a5 97    	mov.w     [w15-56], w11
    1aa0:	08 00 37    	bra       0x1ab2 <.L106>

00001aa2 <.L105>:
    1aa2:	af aa 97    	mov.w     [w15-44], w5
    1aa4:	15 02 78    	mov.w     [w5], w4
    1aa6:	11 00 09    	repeat    #0x11
    1aa8:	04 84 d8    	div.uw    w8, w4
    1aaa:	a4 00 20    	mov.w     #0xa, w4
    1aac:	11 00 09    	repeat    #0x11
    1aae:	04 80 d8    	div.uw    w0, w4
    1ab0:	e1 77 9f    	mov.b     w1, [w15-74]

00001ab2 <.L106>:
    1ab2:	6f 73 97    	mov.b     [w15-74], w6
    1ab4:	06 43 b0    	add.b     #0x30, w6
    1ab6:	e6 77 9f    	mov.b     w6, [w15-74]
    1ab8:	0e 00 37    	bra       0x1ad6 <.L102>

00001aba <.L103>:
    1aba:	08 02 be    	mov.d     w8, w4
    1abc:	0a 03 be    	mov.d     w10, w6
    1abe:	0f a0 97    	mov.w     [w15-64], w0
    1ac0:	91 c7 20    	mov.w     #0xc79, w1

00001ac2 <.LB904>:
    1ac2:	00 00 e9    	dec.w     w0, w0
    1ac4:	05 00 33    	bra       N, 0x1ad0 <.LE904>
    1ac6:	87 03 d1    	lsr.w     w7, w7
    1ac8:	06 83 d3    	rrc.w     w6, w6
    1aca:	85 82 d3    	rrc.w     w5, w5
    1acc:	04 82 d3    	rrc.w     w4, w4
    1ace:	f9 ff 37    	bra       0x1ac2 <.LB904>

00001ad0 <.LE904>:
    1ad0:	6f 02 62    	and.w     w4, #0xf, w4
    1ad2:	61 42 7a    	mov.b     [w1+w4], w4
    1ad4:	e4 77 9f    	mov.b     w4, [w15-74]

00001ad6 <.L102>:
    1ad6:	3c 02 90    	mov.w     [w12+6], w4
    1ad8:	04 04 b2    	and.w     #0x40, w4
    1ada:	07 00 32    	bra       Z, 0x1aea <.L107>
    1adc:	9c 02 78    	mov.w     [w12], w5
    1ade:	6f 72 97    	mov.b     [w15-74], w4
    1ae0:	84 4a 78    	mov.b     w4, [w5]
    1ae2:	05 0e e8    	inc.w     w5, [w12]
    1ae4:	e0 4f 52    	sub.b     w4, #0x0, [w15]
    1ae6:	07 00 3a    	bra       NZ, 0x1af6 <.L108>
    1ae8:	07 00 37    	bra       0x1af8 <.L109>

00001aea <.L107>:
    1aea:	6f 71 97    	mov.b     [w15-74], w2
    1aec:	8c 00 78    	mov.w     w12, w1
    1aee:	02 00 fb    	se        w2, w0
    1af0:	4d fd 07    	rcall     0x158c <_fputc>
    1af2:	e1 0f 40    	add.w     w0, #0x1, [w15]
    1af4:	01 00 32    	bra       Z, 0x1af8 <.L109>

00001af6 <.L108>:
    1af6:	8d 06 e8    	inc.w     w13, w13

00001af8 <.L109>:
    1af8:	8f a1 97    	mov.w     [w15-64], w3
    1afa:	e4 81 51    	sub.w     w3, #0x4, w3
    1afc:	83 a7 9f    	mov.w     w3, [w15-64]
    1afe:	2f aa 97    	mov.w     [w15-44], w4
    1b00:	68 02 52    	sub.w     w4, #0x8, w4

00001b02 <.L145>:
    1b02:	a4 af 9f    	mov.w     w4, [w15-44]
    1b04:	e0 0f 57    	sub.w     w14, #0x0, [w15]
    1b06:	a0 ff 3a    	bra       NZ, 0x1a48 <.L110>
    1b08:	9f b2 97    	mov.w     [w15-30], w5
    1b0a:	68 82 62    	and.w     w5, #0x8, w4
    1b0c:	1e 00 32    	bra       Z, 0x1b4a <.L141>
    1b0e:	7f ab 97    	mov.w     [w15-34], w6
    1b10:	e0 0f 53    	sub.w     w6, #0x0, [w15]
    1b12:	1b 00 34    	bra       LE, 0x1b4a <.L141>
    1b14:	08 02 be    	mov.d     w8, w4
    1b16:	0a 03 be    	mov.d     w10, w6
    1b18:	ff ac 97    	mov.w     [w15-34], w9
    1b1a:	0e c2 b3    	mov.b     #0x20, w14

00001b1c <.L129>:
    1b1c:	3c 00 90    	mov.w     [w12+6], w0
    1b1e:	00 04 b2    	and.w     #0x40, w0
    1b20:	04 00 32    	bra       Z, 0x1b2a <.L111>
    1b22:	1c 00 78    	mov.w     [w12], w0
    1b24:	0e 48 78    	mov.b     w14, [w0]
    1b26:	00 0e e8    	inc.w     w0, [w12]
    1b28:	0d 00 37    	bra       0x1b44 <.L112>

00001b2a <.L111>:
    1b2a:	84 bf 9f    	mov.w     w4, [w15-16]
    1b2c:	d5 b7 9f    	mov.w     w5, [w15-22]
    1b2e:	e6 b7 9f    	mov.w     w6, [w15-20]
    1b30:	f7 b7 9f    	mov.w     w7, [w15-18]
    1b32:	8c 00 78    	mov.w     w12, w1
    1b34:	00 02 20    	mov.w     #0x20, w0
    1b36:	2a fd 07    	rcall     0x158c <_fputc>
    1b38:	0f ba 97    	mov.w     [w15-16], w4
    1b3a:	df b2 97    	mov.w     [w15-22], w5
    1b3c:	6f b3 97    	mov.w     [w15-20], w6
    1b3e:	ff b3 97    	mov.w     [w15-18], w7
    1b40:	e1 0f 40    	add.w     w0, #0x1, [w15]
    1b42:	01 00 32    	bra       Z, 0x1b46 <.L113>

00001b44 <.L112>:
    1b44:	8d 06 e8    	inc.w     w13, w13

00001b46 <.L113>:
    1b46:	89 04 e9    	dec.w     w9, w9
    1b48:	e9 ff 3a    	bra       NZ, 0x1b1c <.L129>

00001b4a <.L141>:
    1b4a:	ef ab 97    	mov.w     [w15-36], w7
    1b4c:	17 40 78    	mov.b     [w7], w0
    1b4e:	e0 77 9f    	mov.b     w0, [w15-74]
    1b50:	e0 4f 50    	sub.b     w0, #0x0, [w15]
    1b52:	6a fd 3a    	bra       NZ, 0x1628 <.L115>

00001b54 <.L26>:
    1b54:	4f 07 78    	mov.w     [--w15], w14
    1b56:	0d 00 78    	mov.w     w13, w0
    1b58:	4f 06 be    	mov.d     [--w15], w12
    1b5a:	4f 05 be    	mov.d     [--w15], w10
    1b5c:	4f 04 be    	mov.d     [--w15], w8
    1b5e:	ef 03 b1    	sub.w     #0x3e, w15
    1b60:	00 00 06    	return    

00001b62 <__flsbuf>:
    1b62:	02 00 fa    	lnk       #0x2
    1b64:	88 9f be    	mov.d     w8, [w15++]
    1b66:	01 04 78    	mov.w     w1, w8
    1b68:	a0 ff 9f    	mov.b     w0, [w15-6]
    1b6a:	38 02 90    	mov.w     [w8+6], w4
    1b6c:	84 02 78    	mov.w     w4, w5
    1b6e:	05 04 b2    	and.w     #0x40, w5
    1b70:	02 00 32    	bra       Z, 0x1b76 <.L2>
    1b72:	00 00 fb    	se        w0, w0
    1b74:	35 00 37    	bra       0x1be0 <.L3>

00001b76 <.L2>:
    1b76:	e2 02 62    	and.w     w4, #0x2, w5
    1b78:	05 00 3a    	bra       NZ, 0x1b84 <.L4>
    1b7a:	04 03 b3    	ior.w     #0x30, w4
    1b7c:	15 04 98    	mov.w     w5, [w8+2]
    1b7e:	34 04 98    	mov.w     w4, [w8+6]
    1b80:	00 80 eb    	setm.w    w0
    1b82:	2e 00 37    	bra       0x1be0 <.L3>

00001b84 <.L4>:
    1b84:	d8 04 90    	mov.w     [w8+10], w9
    1b86:	e0 8f 54    	sub.w     w9, #0x0, [w15]
    1b88:	06 00 3a    	bra       NZ, 0x1b96 <.L5>
    1b8a:	12 00 20    	mov.w     #0x1, w2
    1b8c:	e6 80 57    	sub.w     w15, #0x6, w1
    1b8e:	48 00 90    	mov.w     [w8+8], w0
    1b90:	e4 01 07    	rcall     0x1f5a <_write>
    1b92:	19 04 98    	mov.w     w9, [w8+2]
    1b94:	23 00 37    	bra       0x1bdc <.L7>

00001b96 <.L5>:
    1b96:	a8 02 90    	mov.w     [w8+4], w5
    1b98:	e0 8f 52    	sub.w     w5, #0x0, [w15]
    1b9a:	08 00 3a    	bra       NZ, 0x1bac <.L6>
    1b9c:	05 c9 20    	mov.w     #0xc90, w5
    1b9e:	04 30 a0    	bset.w    w4, #0x3
    1ba0:	25 04 98    	mov.w     w5, [w8+4]
    1ba2:	05 0c 78    	mov.w     w5, [w8]
    1ba4:	34 04 98    	mov.w     w4, [w8+6]
    1ba6:	25 00 20    	mov.w     #0x2, w5
    1ba8:	55 04 98    	mov.w     w5, [w8+10]
    1baa:	15 04 98    	mov.w     w5, [w8+2]

00001bac <.L6>:
    1bac:	18 01 90    	mov.w     [w8+2], w2
    1bae:	a8 00 90    	mov.w     [w8+4], w1
    1bb0:	48 00 90    	mov.w     [w8+8], w0
    1bb2:	d3 01 07    	rcall     0x1f5a <_write>
    1bb4:	28 02 90    	mov.w     [w8+4], w4
    1bb6:	80 82 eb    	setm.w    w5
    1bb8:	15 04 98    	mov.w     w5, [w8+2]
    1bba:	af fa 97    	mov.b     [w15-6], w5
    1bbc:	05 4a 78    	mov.b     w5, [w4]
    1bbe:	04 0c e8    	inc.w     w4, [w8]
    1bc0:	2f fa 97    	mov.b     [w15-6], w4
    1bc2:	ea 4f 52    	sub.b     w4, #0xa, [w15]
    1bc4:	0b 00 3a    	bra       NZ, 0x1bdc <.L7>
    1bc6:	38 02 90    	mov.w     [w8+6], w4
    1bc8:	04 10 b2    	and.w     #0x100, w4
    1bca:	08 00 32    	bra       Z, 0x1bdc <.L7>
    1bcc:	18 01 90    	mov.w     [w8+2], w2
    1bce:	a8 00 90    	mov.w     [w8+4], w1
    1bd0:	48 00 90    	mov.w     [w8+8], w0
    1bd2:	c3 01 07    	rcall     0x1f5a <_write>
    1bd4:	00 02 eb    	clr.w     w4
    1bd6:	a8 02 90    	mov.w     [w8+4], w5
    1bd8:	14 04 98    	mov.w     w4, [w8+2]
    1bda:	05 0c 78    	mov.w     w5, [w8]

00001bdc <.L7>:
    1bdc:	2f fa 97    	mov.b     [w15-6], w4
    1bde:	04 00 fb    	se        w4, w0

00001be0 <.L3>:
    1be0:	4f 04 be    	mov.d     [--w15], w8
    1be2:	00 80 fa    	ulnk      
    1be4:	00 00 06    	return    
Disassembly of section __CONFIG3:

000157fa <__CONFIG3.sec>:
   157fa:	03 1c 00    	nop       
Disassembly of section __CONFIG2:

000157fc <__CONFIG2.sec>:
   157fc:	0f 89 00    	nop       
Disassembly of section __CONFIG1:

000157fe <__CONFIG1.sec>:
   157fe:	7f 3e 00    	nop       
Disassembly of section .application_ivt:

00001000 <__DEFAULT_VECTOR-0x10c>:
    1000:	10 11 04    	goto      0x1110 <__reset>
    1002:	00 00 00 
    1004:	3c 37 04    	goto      0x373c <__DefaultInterrupt>
    1006:	00 00 00 
    1008:	3c 37 04    	goto      0x373c <__DefaultInterrupt>
    100a:	00 00 00 
    100c:	3c 37 04    	goto      0x373c <__DefaultInterrupt>
    100e:	00 00 00 
    1010:	3c 37 04    	goto      0x373c <__DefaultInterrupt>
    1012:	00 00 00 
    1014:	3c 37 04    	goto      0x373c <__DefaultInterrupt>
    1016:	00 00 00 
    1018:	3c 37 04    	goto      0x373c <__DefaultInterrupt>
    101a:	00 00 00 
    101c:	3c 37 04    	goto      0x373c <__DefaultInterrupt>
    101e:	00 00 00 
    1020:	3c 37 04    	goto      0x373c <__DefaultInterrupt>
    1022:	00 00 00 
    1024:	4c 2a 04    	goto      0x2a4c <__T1Interrupt>
    1026:	00 00 00 
    1028:	3c 37 04    	goto      0x373c <__DefaultInterrupt>
    102a:	00 00 00 
    102c:	3c 37 04    	goto      0x373c <__DefaultInterrupt>
    102e:	00 00 00 
    1030:	72 2a 04    	goto      0x2a72 <__T2Interrupt>
    1032:	00 00 00 
    1034:	98 2a 04    	goto      0x2a98 <__T3Interrupt>
    1036:	00 00 00 
    1038:	3c 37 04    	goto      0x373c <__DefaultInterrupt>
    103a:	00 00 00 
    103c:	3c 37 04    	goto      0x373c <__DefaultInterrupt>
    103e:	00 00 00 
    1040:	50 1e 04    	goto      0x1e50 <__U1RXInterrupt>
    1042:	00 00 00 
    1044:	2a 1e 04    	goto      0x1e2a <__U1TXInterrupt>
    1046:	00 00 00 
    1048:	3c 37 04    	goto      0x373c <__DefaultInterrupt>
    104a:	00 00 00 
    104c:	3c 37 04    	goto      0x373c <__DefaultInterrupt>
    104e:	00 00 00 
    1050:	3c 37 04    	goto      0x373c <__DefaultInterrupt>
    1052:	00 00 00 
    1054:	3c 37 04    	goto      0x373c <__DefaultInterrupt>
    1056:	00 00 00 
    1058:	3c 37 04    	goto      0x373c <__DefaultInterrupt>
    105a:	00 00 00 
    105c:	3c 37 04    	goto      0x373c <__DefaultInterrupt>
    105e:	00 00 00 
    1060:	3c 37 04    	goto      0x373c <__DefaultInterrupt>
    1062:	00 00 00 
    1064:	3c 37 04    	goto      0x373c <__DefaultInterrupt>
    1066:	00 00 00 
    1068:	3c 37 04    	goto      0x373c <__DefaultInterrupt>
    106a:	00 00 00 
    106c:	3c 37 04    	goto      0x373c <__DefaultInterrupt>
    106e:	00 00 00 
    1070:	be 2a 04    	goto      0x2abe <__T4Interrupt>
    1072:	00 00 00 
    1074:	e4 2a 04    	goto      0x2ae4 <__T5Interrupt>
    1076:	00 00 00 
    1078:	3c 37 04    	goto      0x373c <__DefaultInterrupt>
    107a:	00 00 00 
    107c:	9c 1e 04    	goto      0x1e9c <__U2RXInterrupt>
    107e:	00 00 00 
    1080:	76 1e 04    	goto      0x1e76 <__U2TXInterrupt>
    1082:	00 00 00 
    1084:	3c 37 04    	goto      0x373c <__DefaultInterrupt>
    1086:	00 00 00 
    1088:	3c 37 04    	goto      0x373c <__DefaultInterrupt>
    108a:	00 00 00 
    108c:	3c 37 04    	goto      0x373c <__DefaultInterrupt>
    108e:	00 00 00 
    1090:	3c 37 04    	goto      0x373c <__DefaultInterrupt>
    1092:	00 00 00 
    1094:	3c 37 04    	goto      0x373c <__DefaultInterrupt>
    1096:	00 00 00 
    1098:	3c 37 04    	goto      0x373c <__DefaultInterrupt>
    109a:	00 00 00 
    109c:	3c 37 04    	goto      0x373c <__DefaultInterrupt>
    109e:	00 00 00 
    10a0:	3c 37 04    	goto      0x373c <__DefaultInterrupt>
    10a2:	00 00 00 
    10a4:	3c 37 04    	goto      0x373c <__DefaultInterrupt>
    10a6:	00 00 00 
    10a8:	3c 37 04    	goto      0x373c <__DefaultInterrupt>
    10aa:	00 00 00 
    10ac:	3c 37 04    	goto      0x373c <__DefaultInterrupt>
    10ae:	00 00 00 
    10b0:	3c 37 04    	goto      0x373c <__DefaultInterrupt>
    10b2:	00 00 00 
    10b4:	3c 37 04    	goto      0x373c <__DefaultInterrupt>
    10b6:	00 00 00 
    10b8:	3c 37 04    	goto      0x373c <__DefaultInterrupt>
    10ba:	00 00 00 
    10bc:	3c 37 04    	goto      0x373c <__DefaultInterrupt>
    10be:	00 00 00 
    10c0:	3c 37 04    	goto      0x373c <__DefaultInterrupt>
    10c2:	00 00 00 
    10c4:	3c 37 04    	goto      0x373c <__DefaultInterrupt>
    10c6:	00 00 00 
    10c8:	3c 37 04    	goto      0x373c <__DefaultInterrupt>
    10ca:	00 00 00 
    10cc:	3c 37 04    	goto      0x373c <__DefaultInterrupt>
    10ce:	00 00 00 
    10d0:	3c 37 04    	goto      0x373c <__DefaultInterrupt>
    10d2:	00 00 00 
    10d4:	3c 37 04    	goto      0x373c <__DefaultInterrupt>
    10d6:	00 00 00 
    10d8:	3c 37 04    	goto      0x373c <__DefaultInterrupt>
    10da:	00 00 00 
    10dc:	e8 1e 04    	goto      0x1ee8 <__U3RXInterrupt>
    10de:	00 00 00 
    10e0:	c2 1e 04    	goto      0x1ec2 <__U3TXInterrupt>
    10e2:	00 00 00 
    10e4:	3c 37 04    	goto      0x373c <__DefaultInterrupt>
    10e6:	00 00 00 
    10e8:	3c 37 04    	goto      0x373c <__DefaultInterrupt>
    10ea:	00 00 00 
    10ec:	3c 37 04    	goto      0x373c <__DefaultInterrupt>
    10ee:	00 00 00 
    10f0:	3c 37 04    	goto      0x373c <__DefaultInterrupt>
    10f2:	00 00 00 
    10f4:	34 1f 04    	goto      0x1f34 <__U4RXInterrupt>
    10f6:	00 00 00 
    10f8:	0e 1f 04    	goto      0x1f0e <__U4TXInterrupt>
    10fa:	00 00 00 
    10fc:	3c 37 04    	goto      0x373c <__DefaultInterrupt>
    10fe:	00 00 00 
    1100:	3c 37 04    	goto      0x373c <__DefaultInterrupt>
    1102:	00 00 00 
    1104:	3c 37 04    	goto      0x373c <__DefaultInterrupt>
    1106:	00 00 00 
    1108:	3c 37 04    	goto      0x373c <__DefaultInterrupt>
    110a:	00 00 00 

0000110c <__DEFAULT_VECTOR>:
    110c:	3c 37 04    	goto      0x373c <__DefaultInterrupt>
    110e:	00 00 00 
Disassembly of section .ivt:

00000004 <.ivt>:
   4:	04 10 00    	nop       
   6:	08 10 00    	nop       
   8:	0c 10 00    	nop       
   a:	10 10 00    	nop       
   c:	14 10 00    	nop       
   e:	0c 11 00    	nop       
  10:	0c 11 00    	nop       
  12:	0c 11 00    	nop       
  14:	18 10 00    	nop       
  16:	1c 10 00    	nop       
  18:	20 10 00    	nop       
  1a:	24 10 00    	nop       
  1c:	0c 11 00    	nop       
  1e:	28 10 00    	nop       
  20:	2c 10 00    	nop       
  22:	30 10 00    	nop       
  24:	34 10 00    	nop       
  26:	38 10 00    	nop       
  28:	3c 10 00    	nop       
  2a:	40 10 00    	nop       
  2c:	44 10 00    	nop       
  2e:	48 10 00    	nop       
  30:	0c 11 00    	nop       
  32:	0c 11 00    	nop       
  34:	4c 10 00    	nop       
  36:	50 10 00    	nop       
  38:	54 10 00    	nop       
  3a:	58 10 00    	nop       
  3c:	5c 10 00    	nop       
  3e:	0c 11 00    	nop       
  40:	60 10 00    	nop       
  42:	64 10 00    	nop       
  44:	0c 11 00    	nop       
  46:	68 10 00    	nop       
  48:	6c 10 00    	nop       
  4a:	70 10 00    	nop       
  4c:	74 10 00    	nop       
  4e:	78 10 00    	nop       
  50:	7c 10 00    	nop       
  52:	80 10 00    	nop       
  54:	84 10 00    	nop       
  56:	88 10 00    	nop       
  58:	0c 11 00    	nop       
  5a:	0c 11 00    	nop       
  5c:	0c 11 00    	nop       
  5e:	8c 10 00    	nop       
  60:	90 10 00    	nop       
  62:	94 10 00    	nop       
  64:	98 10 00    	nop       
  66:	9c 10 00    	nop       
  68:	a0 10 00    	nop       
  6a:	a4 10 00    	nop       
  6c:	a8 10 00    	nop       
  6e:	ac 10 00    	nop       
  70:	0c 11 00    	nop       
  72:	0c 11 00    	nop       
  74:	0c 11 00    	nop       
  76:	b0 10 00    	nop       
  78:	b4 10 00    	nop       
  7a:	0c 11 00    	nop       
  7c:	0c 11 00    	nop       
  7e:	b8 10 00    	nop       
  80:	bc 10 00    	nop       
  82:	0c 11 00    	nop       
  84:	0c 11 00    	nop       
  86:	0c 11 00    	nop       
  88:	0c 11 00    	nop       
  8a:	0c 11 00    	nop       
  8c:	0c 11 00    	nop       
  8e:	0c 11 00    	nop       
  90:	c0 10 00    	nop       
  92:	0c 11 00    	nop       
  94:	0c 11 00    	nop       
  96:	c4 10 00    	nop       
  98:	c8 10 00    	nop       
  9a:	cc 10 00    	nop       
  9c:	0c 11 00    	nop       
  9e:	0c 11 00    	nop       
  a0:	0c 11 00    	nop       
  a2:	0c 11 00    	nop       
  a4:	d0 10 00    	nop       
  a6:	0c 11 00    	nop       
  a8:	0c 11 00    	nop       
  aa:	0c 11 00    	nop       
  ac:	0c 11 00    	nop       
  ae:	d4 10 00    	nop       
  b0:	0c 11 00    	nop       
  b2:	0c 11 00    	nop       
  b4:	0c 11 00    	nop       
  b6:	d8 10 00    	nop       
  b8:	dc 10 00    	nop       
  ba:	e0 10 00    	nop       
  bc:	e4 10 00    	nop       
  be:	e8 10 00    	nop       
  c0:	ec 10 00    	nop       
  c2:	f0 10 00    	nop       
  c4:	f4 10 00    	nop       
  c6:	f8 10 00    	nop       
  c8:	fc 10 00    	nop       
  ca:	00 11 00    	nop       
  cc:	04 11 00    	nop       
  ce:	08 11 00    	nop       
  d0:	0c 11 00    	nop       
  d2:	0c 11 00    	nop       
  d4:	0c 11 00    	nop       
  d6:	0c 11 00    	nop       
  d8:	0c 11 00    	nop       
  da:	0c 11 00    	nop       
  dc:	0c 11 00    	nop       
  de:	0c 11 00    	nop       
  e0:	0c 11 00    	nop       
  e2:	0c 11 00    	nop       
  e4:	0c 11 00    	nop       
  e6:	0c 11 00    	nop       
  e8:	0c 11 00    	nop       
  ea:	0c 11 00    	nop       
  ec:	0c 11 00    	nop       
  ee:	0c 11 00    	nop       
  f0:	0c 11 00    	nop       
  f2:	0c 11 00    	nop       
  f4:	0c 11 00    	nop       
  f6:	0c 11 00    	nop       
  f8:	0c 11 00    	nop       
  fa:	0c 11 00    	nop       
  fc:	0c 11 00    	nop       
  fe:	0c 11 00    	nop       
Disassembly of section .const:

00009be6 <.LC0>:
    9be6:	48 65       	.word 0x6548
    9be8:	6c 6c       	.word 0x6c6c
    9bea:	6f 20       	.word 0x206f
    9bec:	57 6f       	.word 0x6f57
    9bee:	72 6c       	.word 0x6c72
    9bf0:	64 21       	.word 0x2164
    9bf2:	00 57       	.word 0x5700

00009bf3 <.LC1>:
    9bf3:	00 00       	.word 0
    9bf5:	00 00       	.word 0
    9bf7:	00 00       	.word 0
    9bf9:	00 00       	.word 0
    9bfb:	00 00       	.word 0
    9bfd:	00 00       	.word 0
    9bff:	00 00       	.word 0
    9c01:	00 00       	.word 0
    9c03:	00 00       	.word 0
    9c05:	00 00       	.word 0

00009c07 <.LC2>:
    9c07:	00 00       	.word 0
    9c09:	00 00       	.word 0
    9c0b:	00 00       	.word 0
    9c0d:	00 00       	.word 0
    9c0f:	00 00       	.word 0
	...

00009c12 <.LC3>:
    9c12:	54 79       	.word 0x7954
    9c14:	70 65       	.word 0x6570
    9c16:	20 73       	.word 0x7320
    9c18:	6f 6d       	.word 0x6d6f
    9c1a:	65 74       	.word 0x7465
    9c1c:	68 69       	.word 0x6968
    9c1e:	6e 67       	.word 0x676e
    9c20:	20 61       	.word 0x6120
    9c22:	74 20       	.word 0x2074
    9c24:	74 68       	.word 0x6874
    9c26:	65 20       	.word 0x2065
    9c28:	70 72       	.word 0x7270
    9c2a:	6f 6d       	.word 0x6d6f
    9c2c:	70 74       	.word 0x7470
    9c2e:	2e 00       	.word 0x2e

00009c30 <.LC4>:
    9c30:	3e 3e       	.word 0x3e3e
    9c32:	20 00       	.word 0x20

00009c34 <.LC5>:
    9c34:	59 6f       	.word 0x6f59
    9c36:	75 20       	.word 0x2075
    9c38:	74 79       	.word 0x7974
    9c3a:	70 65       	.word 0x6570
    9c3c:	64 20       	.word 0x2064
    9c3e:	27 25       	.word 0x2527
    9c40:	73 27       	.word 0x2773
    9c42:	0a 00       	.word 0xa
Disassembly of section .text:

00001c44 <___putc_nobuffer>:
    1c44:	04 00 fa    	lnk       #0x4
    1c46:	00 0f 78    	mov.w     w0, [w14]
    1c48:	21 47 98    	mov.b     w1, [w14+2]
    1c4a:	00 00 00    	nop       

00001c4c <.L2>:
    1c4c:	1e 02 78    	mov.w     [w14], w4
    1c4e:	14 02 90    	mov.w     [w4+2], w4
    1c50:	94 02 78    	mov.w     [w4], w5
    1c52:	04 20 20    	mov.w     #0x200, w4
    1c54:	04 82 62    	and.w     w5, w4, w4
    1c56:	e0 0f 52    	sub.w     w4, #0x0, [w15]
    1c58:	f9 ff 3a    	bra       NZ, 0x1c4c <.L2>
    1c5a:	1e 02 78    	mov.w     [w14], w4
    1c5c:	24 02 90    	mov.w     [w4+4], w4
    1c5e:	ae 42 90    	mov.b     [w14+2], w5
    1c60:	85 82 fb    	ze        w5, w5
    1c62:	05 0a 78    	mov.w     w5, [w4]
    1c64:	00 80 fa    	ulnk      
    1c66:	00 00 06    	return    

00001c68 <___getc_nobuffer>:
    1c68:	02 00 fa    	lnk       #0x2
    1c6a:	00 0f 78    	mov.w     w0, [w14]
    1c6c:	00 00 00    	nop       

00001c6e <.L4>:
    1c6e:	1e 02 78    	mov.w     [w14], w4
    1c70:	14 02 90    	mov.w     [w4+2], w4
    1c72:	14 02 78    	mov.w     [w4], w4
    1c74:	61 02 62    	and.w     w4, #0x1, w4
    1c76:	e0 0f 52    	sub.w     w4, #0x0, [w15]
    1c78:	fa ff 32    	bra       Z, 0x1c6e <.L4>
    1c7a:	1e 02 78    	mov.w     [w14], w4
    1c7c:	34 02 90    	mov.w     [w4+6], w4
    1c7e:	14 02 78    	mov.w     [w4], w4
    1c80:	04 42 78    	mov.b     w4, w4
    1c82:	04 40 78    	mov.b     w4, w0
    1c84:	00 80 fa    	ulnk      
    1c86:	00 00 06    	return    

00001c88 <___putc_buffer>:
    1c88:	04 00 fa    	lnk       #0x4
    1c8a:	00 0f 78    	mov.w     w0, [w14]
    1c8c:	21 47 98    	mov.b     w1, [w14+2]
    1c8e:	00 00 00    	nop       

00001c90 <.L6>:
    1c90:	1e 02 78    	mov.w     [w14], w4
    1c92:	d4 12 90    	mov.w     [w4+42], w5
    1c94:	1e 02 78    	mov.w     [w14], w4
    1c96:	24 12 90    	mov.w     [w4+36], w4
    1c98:	84 8f 52    	sub.w     w5, w4, [w15]
    1c9a:	fa ff 32    	bra       Z, 0x1c90 <.L6>
    1c9c:	1e 02 78    	mov.w     [w14], w4
    1c9e:	94 12 90    	mov.w     [w4+34], w5
    1ca0:	1e 02 78    	mov.w     [w14], w4
    1ca2:	44 12 90    	mov.w     [w4+40], w4
    1ca4:	04 82 42    	add.w     w5, w4, w4
    1ca6:	2e 40 90    	mov.b     [w14+2], w0
    1ca8:	00 4a 78    	mov.b     w0, [w4]
    1caa:	1e 02 78    	mov.w     [w14], w4
    1cac:	44 12 90    	mov.w     [w4+40], w4
    1cae:	84 02 e8    	inc.w     w4, w5
    1cb0:	1e 02 78    	mov.w     [w14], w4
    1cb2:	24 12 90    	mov.w     [w4+36], w4
    1cb4:	11 00 09    	repeat    #0x11
    1cb6:	84 82 d8    	div.uw    w5, w4
    1cb8:	01 02 78    	mov.w     w1, w4
    1cba:	84 02 78    	mov.w     w4, w5
    1cbc:	1e 02 78    	mov.w     [w14], w4
    1cbe:	45 12 98    	mov.w     w5, [w4+40]
    1cc0:	1e 02 78    	mov.w     [w14], w4
    1cc2:	54 12 90    	mov.w     [w4+42], w4
    1cc4:	84 02 e8    	inc.w     w4, w5
    1cc6:	1e 02 78    	mov.w     [w14], w4
    1cc8:	55 12 98    	mov.w     w5, [w4+42]
    1cca:	1e 02 78    	mov.w     [w14], w4
    1ccc:	d4 12 90    	mov.w     [w4+42], w5
    1cce:	1e 02 78    	mov.w     [w14], w4
    1cd0:	34 1a 90    	mov.w     [w4+54], w4
    1cd2:	84 8f 52    	sub.w     w5, w4, [w15]
    1cd4:	08 00 39    	bra       NC, 0x1ce6 <.L5>
    1cd6:	1e 02 78    	mov.w     [w14], w4
    1cd8:	14 02 90    	mov.w     [w4+2], w4
    1cda:	9e 02 78    	mov.w     [w14], w5
    1cdc:	95 02 90    	mov.w     [w5+2], w5
    1cde:	15 03 78    	mov.w     [w5], w6
    1ce0:	05 40 20    	mov.w     #0x400, w5
    1ce2:	86 82 72    	ior.w     w5, w6, w5
    1ce4:	05 0a 78    	mov.w     w5, [w4]

00001ce6 <.L5>:
    1ce6:	00 80 fa    	ulnk      
    1ce8:	00 00 06    	return    

00001cea <___serviceTxInterrupt>:
    1cea:	04 00 fa    	lnk       #0x4
    1cec:	10 07 98    	mov.w     w0, [w14+2]
    1cee:	1e 02 90    	mov.w     [w14+2], w4
    1cf0:	54 02 90    	mov.w     [w4+10], w4
    1cf2:	9e 02 90    	mov.w     [w14+2], w5
    1cf4:	d5 02 90    	mov.w     [w5+10], w5
    1cf6:	15 03 78    	mov.w     [w5], w6
    1cf8:	9e 02 90    	mov.w     [w14+2], w5
    1cfa:	e5 4a 90    	mov.b     [w5+14], w5
    1cfc:	85 82 fb    	ze        w5, w5
    1cfe:	17 00 20    	mov.w     #0x1, w7
    1d00:	85 3a dd    	sl.w      w7, w5, w5
    1d02:	85 82 ea    	com.w     w5, w5
    1d04:	85 02 63    	and.w     w6, w5, w5
    1d06:	05 0a 78    	mov.w     w5, [w4]
    1d08:	1e 02 90    	mov.w     [w14+2], w4
    1d0a:	54 12 90    	mov.w     [w4+42], w4
    1d0c:	e0 0f 52    	sub.w     w4, #0x0, [w15]
    1d0e:	25 00 3a    	bra       NZ, 0x1d5a <.L13>
    1d10:	1e 02 90    	mov.w     [w14+2], w4
    1d12:	14 02 90    	mov.w     [w4+2], w4
    1d14:	9e 02 90    	mov.w     [w14+2], w5
    1d16:	95 02 90    	mov.w     [w5+2], w5
    1d18:	15 03 78    	mov.w     [w5], w6
    1d1a:	f5 bf 2f    	mov.w     #0xfbff, w5
    1d1c:	85 02 63    	and.w     w6, w5, w5
    1d1e:	05 0a 78    	mov.w     w5, [w4]
    1d20:	1d 00 37    	bra       0x1d5c <.L10>

00001d22 <.L12>:
    1d22:	1e 02 90    	mov.w     [w14+2], w4
    1d24:	94 12 90    	mov.w     [w4+34], w5
    1d26:	1e 02 90    	mov.w     [w14+2], w4
    1d28:	34 12 90    	mov.w     [w4+38], w4
    1d2a:	04 82 42    	add.w     w5, w4, w4
    1d2c:	14 4f 78    	mov.b     [w4], [w14]
    1d2e:	1e 02 90    	mov.w     [w14+2], w4
    1d30:	34 12 90    	mov.w     [w4+38], w4
    1d32:	84 02 e8    	inc.w     w4, w5
    1d34:	1e 02 90    	mov.w     [w14+2], w4
    1d36:	24 12 90    	mov.w     [w4+36], w4
    1d38:	11 00 09    	repeat    #0x11
    1d3a:	84 82 d8    	div.uw    w5, w4
    1d3c:	01 02 78    	mov.w     w1, w4
    1d3e:	84 02 78    	mov.w     w4, w5
    1d40:	1e 02 90    	mov.w     [w14+2], w4
    1d42:	35 12 98    	mov.w     w5, [w4+38]
    1d44:	1e 02 90    	mov.w     [w14+2], w4
    1d46:	54 12 90    	mov.w     [w4+42], w4
    1d48:	84 02 e9    	dec.w     w4, w5
    1d4a:	1e 02 90    	mov.w     [w14+2], w4
    1d4c:	55 12 98    	mov.w     w5, [w4+42]
    1d4e:	1e 02 90    	mov.w     [w14+2], w4
    1d50:	24 02 90    	mov.w     [w4+4], w4
    1d52:	1e 43 78    	mov.b     [w14], w6
    1d54:	86 82 fb    	ze        w6, w5
    1d56:	05 0a 78    	mov.w     w5, [w4]
    1d58:	01 00 37    	bra       0x1d5c <.L10>

00001d5a <.L13>:
    1d5a:	00 00 00    	nop       

00001d5c <.L10>:
    1d5c:	1e 02 90    	mov.w     [w14+2], w4
    1d5e:	14 02 90    	mov.w     [w4+2], w4
    1d60:	94 02 78    	mov.w     [w4], w5
    1d62:	04 20 20    	mov.w     #0x200, w4
    1d64:	04 82 62    	and.w     w5, w4, w4
    1d66:	e0 0f 52    	sub.w     w4, #0x0, [w15]
    1d68:	04 00 3a    	bra       NZ, 0x1d72 <.L8>
    1d6a:	1e 02 90    	mov.w     [w14+2], w4
    1d6c:	54 12 90    	mov.w     [w4+42], w4
    1d6e:	e0 0f 52    	sub.w     w4, #0x0, [w15]
    1d70:	d8 ff 3a    	bra       NZ, 0x1d22 <.L12>

00001d72 <.L8>:
    1d72:	00 80 fa    	ulnk      
    1d74:	00 00 06    	return    

00001d76 <___getc_buffer>:
    1d76:	04 00 fa    	lnk       #0x4
    1d78:	10 07 98    	mov.w     w0, [w14+2]
    1d7a:	00 00 00    	nop       

00001d7c <.L15>:
    1d7c:	1e 02 90    	mov.w     [w14+2], w4
    1d7e:	24 1a 90    	mov.w     [w4+52], w4
    1d80:	e0 0f 52    	sub.w     w4, #0x0, [w15]
    1d82:	fc ff 32    	bra       Z, 0x1d7c <.L15>
    1d84:	1e 02 90    	mov.w     [w14+2], w4
    1d86:	e4 12 90    	mov.w     [w4+44], w5
    1d88:	1e 02 90    	mov.w     [w14+2], w4
    1d8a:	04 1a 90    	mov.w     [w4+48], w4
    1d8c:	04 82 42    	add.w     w5, w4, w4
    1d8e:	14 4f 78    	mov.b     [w4], [w14]
    1d90:	1e 02 90    	mov.w     [w14+2], w4
    1d92:	04 1a 90    	mov.w     [w4+48], w4
    1d94:	84 02 e8    	inc.w     w4, w5
    1d96:	1e 02 90    	mov.w     [w14+2], w4
    1d98:	74 12 90    	mov.w     [w4+46], w4
    1d9a:	11 00 09    	repeat    #0x11
    1d9c:	84 82 d8    	div.uw    w5, w4
    1d9e:	01 02 78    	mov.w     w1, w4
    1da0:	84 02 78    	mov.w     w4, w5
    1da2:	1e 02 90    	mov.w     [w14+2], w4
    1da4:	05 1a 98    	mov.w     w5, [w4+48]
    1da6:	1e 02 90    	mov.w     [w14+2], w4
    1da8:	24 1a 90    	mov.w     [w4+52], w4
    1daa:	84 02 e9    	dec.w     w4, w5
    1dac:	1e 02 90    	mov.w     [w14+2], w4
    1dae:	25 1a 98    	mov.w     w5, [w4+52]
    1db0:	1e 42 78    	mov.b     [w14], w4
    1db2:	04 40 78    	mov.b     w4, w0
    1db4:	00 80 fa    	ulnk      
    1db6:	00 00 06    	return    

00001db8 <___serviceRxInterrupt>:
    1db8:	02 00 fa    	lnk       #0x2
    1dba:	00 0f 78    	mov.w     w0, [w14]
    1dbc:	1e 02 78    	mov.w     [w14], w4
    1dbe:	54 02 90    	mov.w     [w4+10], w4
    1dc0:	9e 02 78    	mov.w     [w14], w5
    1dc2:	d5 02 90    	mov.w     [w5+10], w5
    1dc4:	15 03 78    	mov.w     [w5], w6
    1dc6:	9e 02 78    	mov.w     [w14], w5
    1dc8:	f5 4a 90    	mov.b     [w5+15], w5
    1dca:	85 82 fb    	ze        w5, w5
    1dcc:	17 00 20    	mov.w     #0x1, w7
    1dce:	85 3a dd    	sl.w      w7, w5, w5
    1dd0:	85 82 ea    	com.w     w5, w5
    1dd2:	85 02 63    	and.w     w6, w5, w5
    1dd4:	05 0a 78    	mov.w     w5, [w4]
    1dd6:	1a 00 37    	bra       0x1e0c <.L17>

00001dd8 <.L19>:
    1dd8:	1e 02 78    	mov.w     [w14], w4
    1dda:	e4 12 90    	mov.w     [w4+44], w5
    1ddc:	1e 02 78    	mov.w     [w14], w4
    1dde:	14 1a 90    	mov.w     [w4+50], w4
    1de0:	04 82 42    	add.w     w5, w4, w4
    1de2:	9e 02 78    	mov.w     [w14], w5
    1de4:	b5 02 90    	mov.w     [w5+6], w5
    1de6:	95 02 78    	mov.w     [w5], w5
    1de8:	85 42 78    	mov.b     w5, w5
    1dea:	05 4a 78    	mov.b     w5, [w4]
    1dec:	1e 02 78    	mov.w     [w14], w4
    1dee:	14 1a 90    	mov.w     [w4+50], w4
    1df0:	84 02 e8    	inc.w     w4, w5
    1df2:	1e 02 78    	mov.w     [w14], w4
    1df4:	74 12 90    	mov.w     [w4+46], w4
    1df6:	11 00 09    	repeat    #0x11
    1df8:	84 82 d8    	div.uw    w5, w4
    1dfa:	01 02 78    	mov.w     w1, w4
    1dfc:	84 02 78    	mov.w     w4, w5
    1dfe:	1e 02 78    	mov.w     [w14], w4
    1e00:	15 1a 98    	mov.w     w5, [w4+50]
    1e02:	1e 02 78    	mov.w     [w14], w4
    1e04:	24 1a 90    	mov.w     [w4+52], w4
    1e06:	84 02 e8    	inc.w     w4, w5
    1e08:	1e 02 78    	mov.w     [w14], w4
    1e0a:	25 1a 98    	mov.w     w5, [w4+52]

00001e0c <.L17>:
    1e0c:	1e 02 78    	mov.w     [w14], w4
    1e0e:	14 02 90    	mov.w     [w4+2], w4
    1e10:	14 02 78    	mov.w     [w4], w4
    1e12:	61 02 62    	and.w     w4, #0x1, w4
    1e14:	04 42 78    	mov.b     w4, w4
    1e16:	e0 4f 52    	sub.b     w4, #0x0, [w15]
    1e18:	06 00 32    	bra       Z, 0x1e26 <.L16>
    1e1a:	1e 02 78    	mov.w     [w14], w4
    1e1c:	a4 1a 90    	mov.w     [w4+52], w5
    1e1e:	1e 02 78    	mov.w     [w14], w4
    1e20:	74 12 90    	mov.w     [w4+46], w4
    1e22:	84 8f 52    	sub.w     w5, w4, [w15]
    1e24:	d9 ff 3a    	bra       NZ, 0x1dd8 <.L19>

00001e26 <.L16>:
    1e26:	00 80 fa    	ulnk      
    1e28:	00 00 06    	return    

00001e2a <__U1TXInterrupt>:
    1e2a:	36 00 f8    	push      0x36
    1e2c:	80 9f be    	mov.d     w0, [w15++]
    1e2e:	82 9f be    	mov.d     w2, [w15++]
    1e30:	84 9f be    	mov.d     w4, [w15++]
    1e32:	86 9f be    	mov.d     w6, [w15++]
    1e34:	32 00 f8    	push      0x32
    1e36:	00 20 20    	mov.w     #0x200, w0
    1e38:	90 01 88    	mov.w     w0, 0x32
    1e3a:	00 00 fa    	lnk       #0x0
    1e3c:	80 9b 20    	mov.w     #0x9b8, w0
    1e3e:	55 ff 07    	rcall     0x1cea <___serviceTxInterrupt>
    1e40:	00 80 fa    	ulnk      
    1e42:	32 00 f9    	pop       0x32
    1e44:	4f 03 be    	mov.d     [--w15], w6
    1e46:	4f 02 be    	mov.d     [--w15], w4
    1e48:	4f 01 be    	mov.d     [--w15], w2
    1e4a:	4f 00 be    	mov.d     [--w15], w0
    1e4c:	36 00 f9    	pop       0x36
    1e4e:	00 40 06    	retfie    

00001e50 <__U1RXInterrupt>:
    1e50:	36 00 f8    	push      0x36
    1e52:	80 9f be    	mov.d     w0, [w15++]
    1e54:	82 9f be    	mov.d     w2, [w15++]
    1e56:	84 9f be    	mov.d     w4, [w15++]
    1e58:	86 9f be    	mov.d     w6, [w15++]
    1e5a:	32 00 f8    	push      0x32
    1e5c:	00 20 20    	mov.w     #0x200, w0
    1e5e:	90 01 88    	mov.w     w0, 0x32
    1e60:	00 00 fa    	lnk       #0x0
    1e62:	80 9b 20    	mov.w     #0x9b8, w0
    1e64:	a9 ff 07    	rcall     0x1db8 <___serviceRxInterrupt>
    1e66:	00 80 fa    	ulnk      
    1e68:	32 00 f9    	pop       0x32
    1e6a:	4f 03 be    	mov.d     [--w15], w6
    1e6c:	4f 02 be    	mov.d     [--w15], w4
    1e6e:	4f 01 be    	mov.d     [--w15], w2
    1e70:	4f 00 be    	mov.d     [--w15], w0
    1e72:	36 00 f9    	pop       0x36
    1e74:	00 40 06    	retfie    

00001e76 <__U2TXInterrupt>:
    1e76:	36 00 f8    	push      0x36
    1e78:	80 9f be    	mov.d     w0, [w15++]
    1e7a:	82 9f be    	mov.d     w2, [w15++]
    1e7c:	84 9f be    	mov.d     w4, [w15++]
    1e7e:	86 9f be    	mov.d     w6, [w15++]
    1e80:	32 00 f8    	push      0x32
    1e82:	00 20 20    	mov.w     #0x200, w0
    1e84:	90 01 88    	mov.w     w0, 0x32
    1e86:	00 00 fa    	lnk       #0x0
    1e88:	40 9f 20    	mov.w     #0x9f4, w0
    1e8a:	2f ff 07    	rcall     0x1cea <___serviceTxInterrupt>
    1e8c:	00 80 fa    	ulnk      
    1e8e:	32 00 f9    	pop       0x32
    1e90:	4f 03 be    	mov.d     [--w15], w6
    1e92:	4f 02 be    	mov.d     [--w15], w4
    1e94:	4f 01 be    	mov.d     [--w15], w2
    1e96:	4f 00 be    	mov.d     [--w15], w0
    1e98:	36 00 f9    	pop       0x36
    1e9a:	00 40 06    	retfie    

00001e9c <__U2RXInterrupt>:
    1e9c:	36 00 f8    	push      0x36
    1e9e:	80 9f be    	mov.d     w0, [w15++]
    1ea0:	82 9f be    	mov.d     w2, [w15++]
    1ea2:	84 9f be    	mov.d     w4, [w15++]
    1ea4:	86 9f be    	mov.d     w6, [w15++]
    1ea6:	32 00 f8    	push      0x32
    1ea8:	00 20 20    	mov.w     #0x200, w0
    1eaa:	90 01 88    	mov.w     w0, 0x32
    1eac:	00 00 fa    	lnk       #0x0
    1eae:	40 9f 20    	mov.w     #0x9f4, w0
    1eb0:	83 ff 07    	rcall     0x1db8 <___serviceRxInterrupt>
    1eb2:	00 80 fa    	ulnk      
    1eb4:	32 00 f9    	pop       0x32
    1eb6:	4f 03 be    	mov.d     [--w15], w6
    1eb8:	4f 02 be    	mov.d     [--w15], w4
    1eba:	4f 01 be    	mov.d     [--w15], w2
    1ebc:	4f 00 be    	mov.d     [--w15], w0
    1ebe:	36 00 f9    	pop       0x36
    1ec0:	00 40 06    	retfie    

00001ec2 <__U3TXInterrupt>:
    1ec2:	36 00 f8    	push      0x36
    1ec4:	80 9f be    	mov.d     w0, [w15++]
    1ec6:	82 9f be    	mov.d     w2, [w15++]
    1ec8:	84 9f be    	mov.d     w4, [w15++]
    1eca:	86 9f be    	mov.d     w6, [w15++]
    1ecc:	32 00 f8    	push      0x32
    1ece:	00 20 20    	mov.w     #0x200, w0
    1ed0:	90 01 88    	mov.w     w0, 0x32
    1ed2:	00 00 fa    	lnk       #0x0
    1ed4:	00 a3 20    	mov.w     #0xa30, w0
    1ed6:	09 ff 07    	rcall     0x1cea <___serviceTxInterrupt>
    1ed8:	00 80 fa    	ulnk      
    1eda:	32 00 f9    	pop       0x32
    1edc:	4f 03 be    	mov.d     [--w15], w6
    1ede:	4f 02 be    	mov.d     [--w15], w4
    1ee0:	4f 01 be    	mov.d     [--w15], w2
    1ee2:	4f 00 be    	mov.d     [--w15], w0
    1ee4:	36 00 f9    	pop       0x36
    1ee6:	00 40 06    	retfie    

00001ee8 <__U3RXInterrupt>:
    1ee8:	36 00 f8    	push      0x36
    1eea:	80 9f be    	mov.d     w0, [w15++]
    1eec:	82 9f be    	mov.d     w2, [w15++]
    1eee:	84 9f be    	mov.d     w4, [w15++]
    1ef0:	86 9f be    	mov.d     w6, [w15++]
    1ef2:	32 00 f8    	push      0x32
    1ef4:	00 20 20    	mov.w     #0x200, w0
    1ef6:	90 01 88    	mov.w     w0, 0x32
    1ef8:	00 00 fa    	lnk       #0x0
    1efa:	00 a3 20    	mov.w     #0xa30, w0
    1efc:	5d ff 07    	rcall     0x1db8 <___serviceRxInterrupt>
    1efe:	00 80 fa    	ulnk      
    1f00:	32 00 f9    	pop       0x32
    1f02:	4f 03 be    	mov.d     [--w15], w6
    1f04:	4f 02 be    	mov.d     [--w15], w4
    1f06:	4f 01 be    	mov.d     [--w15], w2
    1f08:	4f 00 be    	mov.d     [--w15], w0
    1f0a:	36 00 f9    	pop       0x36
    1f0c:	00 40 06    	retfie    

00001f0e <__U4TXInterrupt>:
    1f0e:	36 00 f8    	push      0x36
    1f10:	80 9f be    	mov.d     w0, [w15++]
    1f12:	82 9f be    	mov.d     w2, [w15++]
    1f14:	84 9f be    	mov.d     w4, [w15++]
    1f16:	86 9f be    	mov.d     w6, [w15++]
    1f18:	32 00 f8    	push      0x32
    1f1a:	00 20 20    	mov.w     #0x200, w0
    1f1c:	90 01 88    	mov.w     w0, 0x32
    1f1e:	00 00 fa    	lnk       #0x0
    1f20:	c0 a6 20    	mov.w     #0xa6c, w0
    1f22:	e3 fe 07    	rcall     0x1cea <___serviceTxInterrupt>
    1f24:	00 80 fa    	ulnk      
    1f26:	32 00 f9    	pop       0x32
    1f28:	4f 03 be    	mov.d     [--w15], w6
    1f2a:	4f 02 be    	mov.d     [--w15], w4
    1f2c:	4f 01 be    	mov.d     [--w15], w2
    1f2e:	4f 00 be    	mov.d     [--w15], w0
    1f30:	36 00 f9    	pop       0x36
    1f32:	00 40 06    	retfie    

00001f34 <__U4RXInterrupt>:
    1f34:	36 00 f8    	push      0x36
    1f36:	80 9f be    	mov.d     w0, [w15++]
    1f38:	82 9f be    	mov.d     w2, [w15++]
    1f3a:	84 9f be    	mov.d     w4, [w15++]
    1f3c:	86 9f be    	mov.d     w6, [w15++]
    1f3e:	32 00 f8    	push      0x32
    1f40:	00 20 20    	mov.w     #0x200, w0
    1f42:	90 01 88    	mov.w     w0, 0x32
    1f44:	00 00 fa    	lnk       #0x0
    1f46:	c0 a6 20    	mov.w     #0xa6c, w0
    1f48:	37 ff 07    	rcall     0x1db8 <___serviceRxInterrupt>
    1f4a:	00 80 fa    	ulnk      
    1f4c:	32 00 f9    	pop       0x32
    1f4e:	4f 03 be    	mov.d     [--w15], w6
    1f50:	4f 02 be    	mov.d     [--w15], w4
    1f52:	4f 01 be    	mov.d     [--w15], w2
    1f54:	4f 00 be    	mov.d     [--w15], w0
    1f56:	36 00 f9    	pop       0x36
    1f58:	00 40 06    	retfie    

00001f5a <_write>:
    1f5a:	08 00 fa    	lnk       #0x8
    1f5c:	10 07 98    	mov.w     w0, [w14+2]
    1f5e:	21 07 98    	mov.w     w1, [w14+4]
    1f60:	32 07 98    	mov.w     w2, [w14+6]
    1f62:	1e 02 90    	mov.w     [w14+2], w4
    1f64:	e0 0f 52    	sub.w     w4, #0x0, [w15]
    1f66:	29 00 35    	bra       LT, 0x1fba <.L37>
    1f68:	e1 0f 52    	sub.w     w4, #0x1, [w15]
    1f6a:	03 00 34    	bra       LE, 0x1f72 <.L30>
    1f6c:	e2 0f 52    	sub.w     w4, #0x2, [w15]
    1f6e:	13 00 32    	bra       Z, 0x1f96 <.L31>
    1f70:	25 00 37    	bra       0x1fbc <.L34>

00001f72 <.L30>:
    1f72:	00 02 eb    	clr.w     w4
    1f74:	04 0f 78    	mov.w     w4, [w14]
    1f76:	0a 00 37    	bra       0x1f8c <.L32>

00001f78 <.L33>:
    1f78:	2e 02 90    	mov.w     [w14+4], w4
    1f7a:	94 42 78    	mov.b     [w4], w5
    1f7c:	2e 02 90    	mov.w     [w14+4], w4
    1f7e:	04 02 e8    	inc.w     w4, w4
    1f80:	24 07 98    	mov.w     w4, [w14+4]
    1f82:	44 55 80    	mov.w     0xaa8, w4
    1f84:	85 40 78    	mov.b     w5, w1
    1f86:	04 00 78    	mov.w     w4, w0
    1f88:	61 04 07    	rcall     0x284c <_uart_putc>
    1f8a:	1e 0f e8    	inc.w     [w14], [w14]

00001f8c <.L32>:
    1f8c:	9e 02 78    	mov.w     [w14], w5
    1f8e:	3e 02 90    	mov.w     [w14+6], w4
    1f90:	84 8f 52    	sub.w     w5, w4, [w15]
    1f92:	f2 ff 39    	bra       NC, 0x1f78 <.L33>
    1f94:	13 00 37    	bra       0x1fbc <.L34>

00001f96 <.L31>:
    1f96:	00 02 eb    	clr.w     w4
    1f98:	04 0f 78    	mov.w     w4, [w14]
    1f9a:	0a 00 37    	bra       0x1fb0 <.L35>

00001f9c <.L36>:
    1f9c:	2e 02 90    	mov.w     [w14+4], w4
    1f9e:	94 42 78    	mov.b     [w4], w5
    1fa0:	2e 02 90    	mov.w     [w14+4], w4
    1fa2:	04 02 e8    	inc.w     w4, w4
    1fa4:	24 07 98    	mov.w     w4, [w14+4]
    1fa6:	54 55 80    	mov.w     0xaaa, w4
    1fa8:	85 40 78    	mov.b     w5, w1
    1faa:	04 00 78    	mov.w     w4, w0
    1fac:	4f 04 07    	rcall     0x284c <_uart_putc>
    1fae:	1e 0f e8    	inc.w     [w14], [w14]

00001fb0 <.L35>:
    1fb0:	9e 02 78    	mov.w     [w14], w5
    1fb2:	3e 02 90    	mov.w     [w14+6], w4
    1fb4:	84 8f 52    	sub.w     w5, w4, [w15]
    1fb6:	f2 ff 39    	bra       NC, 0x1f9c <.L36>
    1fb8:	01 00 37    	bra       0x1fbc <.L34>

00001fba <.L37>:
    1fba:	00 00 00    	nop       

00001fbc <.L34>:
    1fbc:	3e 02 90    	mov.w     [w14+6], w4
    1fbe:	04 00 78    	mov.w     w4, w0
    1fc0:	00 80 fa    	ulnk      
    1fc2:	00 00 06    	return    

00001fc4 <_init_uart>:
    1fc4:	00 00 fa    	lnk       #0x0
    1fc6:	f0 07 07    	rcall     0x2fa8 <_init_pin>
    1fc8:	44 6d 20    	mov.w     #0x6d4, w4
    1fca:	84 1f 78    	mov.w     w4, [w15++]
    1fcc:	57 01 20    	mov.w     #0x15, w7
    1fce:	86 c0 b3    	mov.b     #0x8, w6
    1fd0:	80 82 eb    	setm.w    w5
    1fd2:	64 c0 b3    	mov.b     #0x6, w4
    1fd4:	80 01 eb    	clr.w     w3
    1fd6:	02 2f 20    	mov.w     #0x2f0, w2
    1fd8:	21 2f 20    	mov.w     #0x2f2, w1
    1fda:	c0 aa 20    	mov.w     #0xaac, w0
    1fdc:	fd 08 07    	rcall     0x31d8 <_pin_init>
    1fde:	8f 87 e9    	dec2.w    w15, w15
    1fe0:	a4 6d 20    	mov.w     #0x6da, w4
    1fe2:	84 1f 78    	mov.w     w4, [w15++]
    1fe4:	a7 01 20    	mov.w     #0x1a, w7
    1fe6:	00 43 eb    	clr.b     w6
    1fe8:	80 82 eb    	setm.w    w5
    1fea:	74 c0 b3    	mov.b     #0x7, w4
    1fec:	80 01 eb    	clr.w     w3
    1fee:	02 2f 20    	mov.w     #0x2f0, w2
    1ff0:	21 2f 20    	mov.w     #0x2f2, w1
    1ff2:	20 ac 20    	mov.w     #0xac2, w0
    1ff4:	f1 08 07    	rcall     0x31d8 <_pin_init>
    1ff6:	8f 87 e9    	dec2.w    w15, w15
    1ff8:	44 00 20    	mov.w     #0x4, w4
    1ffa:	84 1f 78    	mov.w     w4, [w15++]
    1ffc:	34 00 20    	mov.w     #0x3, w4
    1ffe:	84 1f 78    	mov.w     w4, [w15++]
    2000:	84 c0 b3    	mov.b     #0x8, w4
    2002:	84 1f 78    	mov.w     w4, [w15++]
    2004:	00 42 eb    	clr.b     w4
    2006:	84 1f 78    	mov.w     w4, [w15++]
    2008:	44 6a 20    	mov.w     #0x6a4, w4
    200a:	84 1f 78    	mov.w     w4, [w15++]
    200c:	44 6a 20    	mov.w     #0x6a4, w4
    200e:	84 1f 78    	mov.w     w4, [w15++]
    2010:	b4 c0 b3    	mov.b     #0xb, w4
    2012:	84 1f 78    	mov.w     w4, [w15++]
    2014:	c4 c0 b3    	mov.b     #0xc, w4
    2016:	84 1f 78    	mov.w     w4, [w15++]
    2018:	47 09 20    	mov.w     #0x94, w7
    201a:	46 08 20    	mov.w     #0x84, w6
    201c:	85 22 20    	mov.w     #0x228, w5
    201e:	64 22 20    	mov.w     #0x226, w4
    2020:	43 22 20    	mov.w     #0x224, w3
    2022:	22 22 20    	mov.w     #0x222, w2
    2024:	01 22 20    	mov.w     #0x220, w1
    2026:	80 9b 20    	mov.w     #0x9b8, w0
    2028:	6b 00 07    	rcall     0x2100 <_uart_init>
    202a:	f0 87 57    	sub.w     w15, #0x10, w15
    202c:	64 00 20    	mov.w     #0x6, w4
    202e:	84 1f 78    	mov.w     w4, [w15++]
    2030:	54 00 20    	mov.w     #0x5, w4
    2032:	84 1f 78    	mov.w     w4, [w15++]
    2034:	84 c0 b3    	mov.b     #0x8, w4
    2036:	84 1f 78    	mov.w     w4, [w15++]
    2038:	00 42 eb    	clr.b     w4
    203a:	84 1f 78    	mov.w     w4, [w15++]
    203c:	64 6a 20    	mov.w     #0x6a6, w4
    203e:	84 1f 78    	mov.w     w4, [w15++]
    2040:	64 6a 20    	mov.w     #0x6a6, w4
    2042:	84 1f 78    	mov.w     w4, [w15++]
    2044:	e4 c0 b3    	mov.b     #0xe, w4
    2046:	84 1f 78    	mov.w     w4, [w15++]
    2048:	f4 c0 b3    	mov.b     #0xf, w4
    204a:	84 1f 78    	mov.w     w4, [w15++]
    204c:	67 09 20    	mov.w     #0x96, w7
    204e:	66 08 20    	mov.w     #0x86, w6
    2050:	85 23 20    	mov.w     #0x238, w5
    2052:	64 23 20    	mov.w     #0x236, w4
    2054:	43 23 20    	mov.w     #0x234, w3
    2056:	22 23 20    	mov.w     #0x232, w2
    2058:	01 23 20    	mov.w     #0x230, w1
    205a:	40 9f 20    	mov.w     #0x9f4, w0
    205c:	51 00 07    	rcall     0x2100 <_uart_init>
    205e:	f0 87 57    	sub.w     w15, #0x10, w15
    2060:	d4 01 20    	mov.w     #0x1d, w4
    2062:	84 1f 78    	mov.w     w4, [w15++]
    2064:	c4 01 20    	mov.w     #0x1c, w4
    2066:	84 1f 78    	mov.w     w4, [w15++]
    2068:	84 c0 b3    	mov.b     #0x8, w4
    206a:	84 1f 78    	mov.w     w4, [w15++]
    206c:	84 c0 b3    	mov.b     #0x8, w4
    206e:	84 1f 78    	mov.w     w4, [w15++]
    2070:	a4 6a 20    	mov.w     #0x6aa, w4
    2072:	84 1f 78    	mov.w     w4, [w15++]
    2074:	24 6a 20    	mov.w     #0x6a2, w4
    2076:	84 1f 78    	mov.w     w4, [w15++]
    2078:	24 c0 b3    	mov.b     #0x2, w4
    207a:	84 1f 78    	mov.w     w4, [w15++]
    207c:	34 c0 b3    	mov.b     #0x3, w4
    207e:	84 1f 78    	mov.w     w4, [w15++]
    2080:	e7 09 20    	mov.w     #0x9e, w7
    2082:	e6 08 20    	mov.w     #0x8e, w6
    2084:	85 25 20    	mov.w     #0x258, w5
    2086:	64 25 20    	mov.w     #0x256, w4
    2088:	43 25 20    	mov.w     #0x254, w3
    208a:	22 25 20    	mov.w     #0x252, w2
    208c:	01 25 20    	mov.w     #0x250, w1
    208e:	00 a3 20    	mov.w     #0xa30, w0
    2090:	37 00 07    	rcall     0x2100 <_uart_init>
    2092:	f0 87 57    	sub.w     w15, #0x10, w15
    2094:	f4 01 20    	mov.w     #0x1f, w4
    2096:	84 1f 78    	mov.w     w4, [w15++]
    2098:	e4 01 20    	mov.w     #0x1e, w4
    209a:	84 1f 78    	mov.w     w4, [w15++]
    209c:	84 c0 b3    	mov.b     #0x8, w4
    209e:	84 1f 78    	mov.w     w4, [w15++]
    20a0:	00 42 eb    	clr.b     w4
    20a2:	84 1f 78    	mov.w     w4, [w15++]
    20a4:	64 6b 20    	mov.w     #0x6b6, w4
    20a6:	84 1f 78    	mov.w     w4, [w15++]
    20a8:	64 6b 20    	mov.w     #0x6b6, w4
    20aa:	84 1f 78    	mov.w     w4, [w15++]
    20ac:	84 c0 b3    	mov.b     #0x8, w4
    20ae:	84 1f 78    	mov.w     w4, [w15++]
    20b0:	94 c0 b3    	mov.b     #0x9, w4
    20b2:	84 1f 78    	mov.w     w4, [w15++]
    20b4:	e7 09 20    	mov.w     #0x9e, w7
    20b6:	e6 08 20    	mov.w     #0x8e, w6
    20b8:	85 2b 20    	mov.w     #0x2b8, w5
    20ba:	64 2b 20    	mov.w     #0x2b6, w4
    20bc:	43 2b 20    	mov.w     #0x2b4, w3
    20be:	22 2b 20    	mov.w     #0x2b2, w2
    20c0:	01 2b 20    	mov.w     #0x2b0, w1
    20c2:	c0 a6 20    	mov.w     #0xa6c, w0
    20c4:	1d 00 07    	rcall     0x2100 <_uart_init>
    20c6:	f0 87 57    	sub.w     w15, #0x10, w15
    20c8:	00 02 eb    	clr.w     w4
    20ca:	84 1f 78    	mov.w     w4, [w15++]
    20cc:	00 02 eb    	clr.w     w4
    20ce:	84 1f 78    	mov.w     w4, [w15++]
    20d0:	00 02 eb    	clr.w     w4
    20d2:	84 1f 78    	mov.w     w4, [w15++]
    20d4:	00 02 eb    	clr.w     w4
    20d6:	84 1f 78    	mov.w     w4, [w15++]
    20d8:	00 02 eb    	clr.w     w4
    20da:	84 1f 78    	mov.w     w4, [w15++]
    20dc:	14 00 20    	mov.w     #0x1, w4
    20de:	84 1f 78    	mov.w     w4, [w15++]
    20e0:	e5 c4 b3    	mov.b     #0x4e, w5
    20e2:	06 00 20    	mov.w     #0x0, w6
    20e4:	67 69 24    	mov.w     #0x4696, w7
    20e6:	00 02 eb    	clr.w     w4
    20e8:	80 01 eb    	clr.w     w3
    20ea:	22 ac 20    	mov.w     #0xac2, w2
    20ec:	c1 aa 20    	mov.w     #0xaac, w1
    20ee:	80 9b 20    	mov.w     #0x9b8, w0
    20f0:	72 00 07    	rcall     0x21d6 <_uart_open>
    20f2:	ec 87 57    	sub.w     w15, #0xc, w15
    20f4:	84 9b 20    	mov.w     #0x9b8, w4
    20f6:	44 55 88    	mov.w     w4, 0xaa8
    20f8:	84 9b 20    	mov.w     #0x9b8, w4
    20fa:	54 55 88    	mov.w     w4, 0xaaa
    20fc:	00 80 fa    	ulnk      
    20fe:	00 00 06    	return    

00002100 <_uart_init>:
    2100:	10 00 fa    	lnk       #0x10
    2102:	00 0f 78    	mov.w     w0, [w14]
    2104:	11 07 98    	mov.w     w1, [w14+2]
    2106:	22 07 98    	mov.w     w2, [w14+4]
    2108:	33 07 98    	mov.w     w3, [w14+6]
    210a:	44 07 98    	mov.w     w4, [w14+8]
    210c:	55 07 98    	mov.w     w5, [w14+10]
    210e:	66 07 98    	mov.w     w6, [w14+12]
    2110:	77 07 98    	mov.w     w7, [w14+14]
    2112:	1e 02 78    	mov.w     [w14], w4
    2114:	9e 02 90    	mov.w     [w14+2], w5
    2116:	05 0a 78    	mov.w     w5, [w4]
    2118:	1e 02 78    	mov.w     [w14], w4
    211a:	ae 02 90    	mov.w     [w14+4], w5
    211c:	15 02 98    	mov.w     w5, [w4+2]
    211e:	1e 02 78    	mov.w     [w14], w4
    2120:	be 02 90    	mov.w     [w14+6], w5
    2122:	25 02 98    	mov.w     w5, [w4+4]
    2124:	1e 02 78    	mov.w     [w14], w4
    2126:	ce 02 90    	mov.w     [w14+8], w5
    2128:	35 02 98    	mov.w     w5, [w4+6]
    212a:	1e 02 78    	mov.w     [w14], w4
    212c:	de 02 90    	mov.w     [w14+10], w5
    212e:	45 02 98    	mov.w     w5, [w4+8]
    2130:	1e 02 78    	mov.w     [w14], w4
    2132:	ee 02 90    	mov.w     [w14+12], w5
    2134:	55 02 98    	mov.w     w5, [w4+10]
    2136:	1e 02 78    	mov.w     [w14], w4
    2138:	fe 02 90    	mov.w     [w14+14], w5
    213a:	65 02 98    	mov.w     w5, [w4+12]
    213c:	1e 02 78    	mov.w     [w14], w4
    213e:	8e fa 97    	mov.b     [w14-8], w5
    2140:	65 4a 98    	mov.b     w5, [w4+14]
    2142:	1e 02 78    	mov.w     [w14], w4
    2144:	ee f2 97    	mov.b     [w14-10], w5
    2146:	75 4a 98    	mov.b     w5, [w4+15]
    2148:	1e 02 78    	mov.w     [w14], w4
    214a:	ae ba 97    	mov.w     [w14-12], w5
    214c:	05 0a 98    	mov.w     w5, [w4+16]
    214e:	1e 02 78    	mov.w     [w14], w4
    2150:	9e ba 97    	mov.w     [w14-14], w5
    2152:	15 0a 98    	mov.w     w5, [w4+18]
    2154:	1e 02 78    	mov.w     [w14], w4
    2156:	8e f2 97    	mov.b     [w14-16], w5
    2158:	45 52 98    	mov.b     w5, [w4+20]
    215a:	1e 02 78    	mov.w     [w14], w4
    215c:	ee ea 97    	mov.b     [w14-18], w5
    215e:	55 52 98    	mov.b     w5, [w4+21]
    2160:	1e 02 78    	mov.w     [w14], w4
    2162:	ee b2 97    	mov.w     [w14-20], w5
    2164:	35 0a 98    	mov.w     w5, [w4+22]
    2166:	1e 02 78    	mov.w     [w14], w4
    2168:	de b2 97    	mov.w     [w14-22], w5
    216a:	45 0a 98    	mov.w     w5, [w4+24]
    216c:	1e 02 78    	mov.w     [w14], w4
    216e:	80 02 eb    	clr.w     w5
    2170:	55 0a 98    	mov.w     w5, [w4+26]
    2172:	1e 02 78    	mov.w     [w14], w4
    2174:	80 02 eb    	clr.w     w5
    2176:	65 0a 98    	mov.w     w5, [w4+28]
    2178:	1e 02 78    	mov.w     [w14], w4
    217a:	80 02 eb    	clr.w     w5
    217c:	75 0a 98    	mov.w     w5, [w4+30]
    217e:	1e 02 78    	mov.w     [w14], w4
    2180:	80 02 eb    	clr.w     w5
    2182:	05 12 98    	mov.w     w5, [w4+32]
    2184:	1e 02 78    	mov.w     [w14], w4
    2186:	80 02 eb    	clr.w     w5
    2188:	15 12 98    	mov.w     w5, [w4+34]
    218a:	1e 02 78    	mov.w     [w14], w4
    218c:	80 02 eb    	clr.w     w5
    218e:	25 12 98    	mov.w     w5, [w4+36]
    2190:	1e 02 78    	mov.w     [w14], w4
    2192:	80 02 eb    	clr.w     w5
    2194:	35 12 98    	mov.w     w5, [w4+38]
    2196:	1e 02 78    	mov.w     [w14], w4
    2198:	80 02 eb    	clr.w     w5
    219a:	45 12 98    	mov.w     w5, [w4+40]
    219c:	1e 02 78    	mov.w     [w14], w4
    219e:	80 02 eb    	clr.w     w5
    21a0:	55 12 98    	mov.w     w5, [w4+42]
    21a2:	1e 02 78    	mov.w     [w14], w4
    21a4:	80 02 eb    	clr.w     w5
    21a6:	65 12 98    	mov.w     w5, [w4+44]
    21a8:	1e 02 78    	mov.w     [w14], w4
    21aa:	80 02 eb    	clr.w     w5
    21ac:	75 12 98    	mov.w     w5, [w4+46]
    21ae:	1e 02 78    	mov.w     [w14], w4
    21b0:	80 02 eb    	clr.w     w5
    21b2:	05 1a 98    	mov.w     w5, [w4+48]
    21b4:	1e 02 78    	mov.w     [w14], w4
    21b6:	80 02 eb    	clr.w     w5
    21b8:	15 1a 98    	mov.w     w5, [w4+50]
    21ba:	1e 02 78    	mov.w     [w14], w4
    21bc:	80 02 eb    	clr.w     w5
    21be:	25 1a 98    	mov.w     w5, [w4+52]
    21c0:	1e 02 78    	mov.w     [w14], w4
    21c2:	15 00 20    	mov.w     #0x1, w5
    21c4:	35 1a 98    	mov.w     w5, [w4+54]
    21c6:	1e 02 78    	mov.w     [w14], w4
    21c8:	80 02 eb    	clr.w     w5
    21ca:	45 1a 98    	mov.w     w5, [w4+56]
    21cc:	1e 02 78    	mov.w     [w14], w4
    21ce:	80 02 eb    	clr.w     w5
    21d0:	55 1a 98    	mov.w     w5, [w4+58]
    21d2:	00 80 fa    	ulnk      
    21d4:	00 00 06    	return    

000021d6 <_uart_open>:
    21d6:	10 00 fa    	lnk       #0x10
    21d8:	88 1f 78    	mov.w     w8, [w15++]
    21da:	00 0f 78    	mov.w     w0, [w14]
    21dc:	11 07 98    	mov.w     w1, [w14+2]
    21de:	22 07 98    	mov.w     w2, [w14+4]
    21e0:	33 07 98    	mov.w     w3, [w14+6]
    21e2:	44 07 98    	mov.w     w4, [w14+8]
    21e4:	56 07 98    	mov.w     w6, [w14+10]
    21e6:	67 07 98    	mov.w     w7, [w14+12]
    21e8:	65 4f 98    	mov.b     w5, [w14+14]
    21ea:	1e 02 78    	mov.w     [w14], w4
    21ec:	14 02 78    	mov.w     [w4], w4
    21ee:	80 02 eb    	clr.w     w5
    21f0:	05 0a 78    	mov.w     w5, [w4]
    21f2:	1e 02 90    	mov.w     [w14+2], w4
    21f4:	64 02 90    	mov.w     [w4+12], w4
    21f6:	e1 0f 42    	add.w     w4, #0x1, [w15]
    21f8:	1b 02 32    	bra       Z, 0x2630 <.L73>
    21fa:	2e 02 90    	mov.w     [w14+4], w4
    21fc:	64 02 90    	mov.w     [w4+12], w4
    21fe:	e1 0f 42    	add.w     w4, #0x1, [w15]
    2200:	19 02 32    	bra       Z, 0x2634 <.L74>
    2202:	1e 02 90    	mov.w     [w14+2], w4
    2204:	04 0a 90    	mov.w     [w4+16], w4
    2206:	e0 0f 52    	sub.w     w4, #0x0, [w15]
    2208:	69 00 3a    	bra       NZ, 0x22dc <.L44>
    220a:	2e 02 90    	mov.w     [w14+4], w4
    220c:	04 0a 90    	mov.w     [w4+16], w4
    220e:	e0 0f 52    	sub.w     w4, #0x0, [w15]
    2210:	65 00 3a    	bra       NZ, 0x22dc <.L44>
    2212:	1e 00 90    	mov.w     [w14+2], w0
    2214:	34 08 07    	rcall     0x327e <_pin_digitalOut>
    2216:	1e 00 90    	mov.w     [w14+2], w0
    2218:	8f 08 07    	rcall     0x3338 <_pin_set>
    221a:	2e 00 90    	mov.w     [w14+4], w0
    221c:	09 08 07    	rcall     0x3230 <_pin_digitalIn>
    221e:	1e 02 78    	mov.w     [w14], w4
    2220:	9e 02 90    	mov.w     [w14+2], w5
    2222:	55 0a 98    	mov.w     w5, [w4+26]
    2224:	1e 02 90    	mov.w     [w14+2], w4
    2226:	9e 02 78    	mov.w     [w14], w5
    2228:	05 0a 98    	mov.w     w5, [w4+16]
    222a:	1e 02 90    	mov.w     [w14+2], w4
    222c:	80 02 eb    	clr.w     w5
    222e:	15 0a 98    	mov.w     w5, [w4+18]
    2230:	1e 02 90    	mov.w     [w14+2], w4
    2232:	80 02 eb    	clr.w     w5
    2234:	25 0a 98    	mov.w     w5, [w4+20]
    2236:	1e 02 78    	mov.w     [w14], w4
    2238:	ae 02 90    	mov.w     [w14+4], w5
    223a:	65 0a 98    	mov.w     w5, [w4+28]
    223c:	2e 02 90    	mov.w     [w14+4], w4
    223e:	9e 02 78    	mov.w     [w14], w5
    2240:	05 0a 98    	mov.w     w5, [w4+16]
    2242:	2e 02 90    	mov.w     [w14+4], w4
    2244:	80 02 eb    	clr.w     w5
    2246:	15 0a 98    	mov.w     w5, [w4+18]
    2248:	2e 02 90    	mov.w     [w14+4], w4
    224a:	80 02 eb    	clr.w     w5
    224c:	25 0a 98    	mov.w     w5, [w4+20]
    224e:	15 3a 80    	mov.w     0x742, w5
    2250:	f4 0b 20    	mov.w     #0xbf, w4
    2252:	04 83 62    	and.w     w5, w4, w6
    2254:	64 04 20    	mov.w     #0x46, w4
    2256:	75 05 20    	mov.w     #0x57, w5
    2258:	27 74 20    	mov.w     #0x742, w7
    225a:	84 4b 78    	mov.b     w4, [w7]
    225c:	85 4b 78    	mov.b     w5, [w7]
    225e:	86 4b 78    	mov.b     w6, [w7]
    2260:	1e 02 90    	mov.w     [w14+2], w4
    2262:	74 02 90    	mov.w     [w4+14], w4
    2264:	9e 02 90    	mov.w     [w14+2], w5
    2266:	f5 02 90    	mov.w     [w5+14], w5
    2268:	15 03 78    	mov.w     [w5], w6
    226a:	9e 02 90    	mov.w     [w14+2], w5
    226c:	a5 4a 90    	mov.b     [w5+10], w5
    226e:	85 82 fb    	ze        w5, w5
    2270:	f7 03 20    	mov.w     #0x3f, w7
    2272:	85 3a dd    	sl.w      w7, w5, w5
    2274:	85 82 ea    	com.w     w5, w5
    2276:	85 02 63    	and.w     w6, w5, w5
    2278:	05 0a 78    	mov.w     w5, [w4]
    227a:	1e 02 90    	mov.w     [w14+2], w4
    227c:	74 02 90    	mov.w     [w4+14], w4
    227e:	9e 02 90    	mov.w     [w14+2], w5
    2280:	f5 02 90    	mov.w     [w5+14], w5
    2282:	15 03 78    	mov.w     [w5], w6
    2284:	9e 02 78    	mov.w     [w14], w5
    2286:	b5 0b 90    	mov.w     [w5+22], w7
    2288:	9e 02 90    	mov.w     [w14+2], w5
    228a:	a5 4a 90    	mov.b     [w5+10], w5
    228c:	85 82 fb    	ze        w5, w5
    228e:	85 3a dd    	sl.w      w7, w5, w5
    2290:	86 82 72    	ior.w     w5, w6, w5
    2292:	05 0a 78    	mov.w     w5, [w4]
    2294:	1e 02 78    	mov.w     [w14], w4
    2296:	04 0a 90    	mov.w     [w4+16], w4
    2298:	9e 02 78    	mov.w     [w14], w5
    229a:	85 0a 90    	mov.w     [w5+16], w5
    229c:	15 03 78    	mov.w     [w5], w6
    229e:	9e 02 78    	mov.w     [w14], w5
    22a0:	c5 52 90    	mov.b     [w5+20], w5
    22a2:	85 82 fb    	ze        w5, w5
    22a4:	f7 03 20    	mov.w     #0x3f, w7
    22a6:	85 3a dd    	sl.w      w7, w5, w5
    22a8:	85 82 ea    	com.w     w5, w5
    22aa:	85 02 63    	and.w     w6, w5, w5
    22ac:	05 0a 78    	mov.w     w5, [w4]
    22ae:	1e 02 78    	mov.w     [w14], w4
    22b0:	04 0a 90    	mov.w     [w4+16], w4
    22b2:	9e 02 78    	mov.w     [w14], w5
    22b4:	85 0a 90    	mov.w     [w5+16], w5
    22b6:	15 03 78    	mov.w     [w5], w6
    22b8:	ae 02 90    	mov.w     [w14+4], w5
    22ba:	e5 03 90    	mov.w     [w5+12], w7
    22bc:	9e 02 78    	mov.w     [w14], w5
    22be:	c5 52 90    	mov.b     [w5+20], w5
    22c0:	85 82 fb    	ze        w5, w5
    22c2:	85 3a dd    	sl.w      w7, w5, w5
    22c4:	86 82 72    	ior.w     w5, w6, w5
    22c6:	05 0a 78    	mov.w     w5, [w4]
    22c8:	15 3a 80    	mov.w     0x742, w5
    22ca:	04 04 20    	mov.w     #0x40, w4
    22cc:	05 03 72    	ior.w     w4, w5, w6
    22ce:	64 04 20    	mov.w     #0x46, w4
    22d0:	75 05 20    	mov.w     #0x57, w5
    22d2:	27 74 20    	mov.w     #0x742, w7
    22d4:	84 4b 78    	mov.b     w4, [w7]
    22d6:	85 4b 78    	mov.b     w5, [w7]
    22d8:	86 4b 78    	mov.b     w6, [w7]
    22da:	0a 00 37    	bra       0x22f0 <.L45>

000022dc <.L44>:
    22dc:	1e 02 78    	mov.w     [w14], w4
    22de:	d4 0a 90    	mov.w     [w4+26], w5
    22e0:	1e 02 90    	mov.w     [w14+2], w4
    22e2:	84 8f 52    	sub.w     w5, w4, [w15]
    22e4:	a9 01 3a    	bra       NZ, 0x2638 <.L75>
    22e6:	1e 02 78    	mov.w     [w14], w4
    22e8:	e4 0a 90    	mov.w     [w4+28], w5
    22ea:	2e 02 90    	mov.w     [w14+4], w4
    22ec:	84 8f 52    	sub.w     w5, w4, [w15]
    22ee:	a6 01 3a    	bra       NZ, 0x263c <.L76>

000022f0 <.L45>:
    22f0:	3e 02 90    	mov.w     [w14+6], w4
    22f2:	e0 0f 52    	sub.w     w4, #0x0, [w15]
    22f4:	87 00 32    	bra       Z, 0x2404 <.L47>
    22f6:	4e 02 90    	mov.w     [w14+8], w4
    22f8:	e0 0f 52    	sub.w     w4, #0x0, [w15]
    22fa:	84 00 32    	bra       Z, 0x2404 <.L47>
    22fc:	3e 02 90    	mov.w     [w14+6], w4
    22fe:	64 02 90    	mov.w     [w4+12], w4
    2300:	e1 0f 42    	add.w     w4, #0x1, [w15]
    2302:	9e 01 32    	bra       Z, 0x2640 <.L77>
    2304:	4e 02 90    	mov.w     [w14+8], w4
    2306:	64 02 90    	mov.w     [w4+12], w4
    2308:	e1 0f 42    	add.w     w4, #0x1, [w15]
    230a:	9c 01 32    	bra       Z, 0x2644 <.L78>
    230c:	3e 02 90    	mov.w     [w14+6], w4
    230e:	04 0a 90    	mov.w     [w4+16], w4
    2310:	e0 0f 52    	sub.w     w4, #0x0, [w15]
    2312:	69 00 3a    	bra       NZ, 0x23e6 <.L50>
    2314:	4e 02 90    	mov.w     [w14+8], w4
    2316:	04 0a 90    	mov.w     [w4+16], w4
    2318:	e0 0f 52    	sub.w     w4, #0x0, [w15]
    231a:	65 00 3a    	bra       NZ, 0x23e6 <.L50>
    231c:	3e 00 90    	mov.w     [w14+6], w0
    231e:	af 07 07    	rcall     0x327e <_pin_digitalOut>
    2320:	3e 00 90    	mov.w     [w14+6], w0
    2322:	0a 08 07    	rcall     0x3338 <_pin_set>
    2324:	4e 00 90    	mov.w     [w14+8], w0
    2326:	84 07 07    	rcall     0x3230 <_pin_digitalIn>
    2328:	1e 02 78    	mov.w     [w14], w4
    232a:	be 02 90    	mov.w     [w14+6], w5
    232c:	75 0a 98    	mov.w     w5, [w4+30]
    232e:	3e 02 90    	mov.w     [w14+6], w4
    2330:	9e 02 78    	mov.w     [w14], w5
    2332:	05 0a 98    	mov.w     w5, [w4+16]
    2334:	3e 02 90    	mov.w     [w14+6], w4
    2336:	80 02 eb    	clr.w     w5
    2338:	15 0a 98    	mov.w     w5, [w4+18]
    233a:	3e 02 90    	mov.w     [w14+6], w4
    233c:	80 02 eb    	clr.w     w5
    233e:	25 0a 98    	mov.w     w5, [w4+20]
    2340:	1e 02 78    	mov.w     [w14], w4
    2342:	ce 02 90    	mov.w     [w14+8], w5
    2344:	05 12 98    	mov.w     w5, [w4+32]
    2346:	4e 02 90    	mov.w     [w14+8], w4
    2348:	9e 02 78    	mov.w     [w14], w5
    234a:	05 0a 98    	mov.w     w5, [w4+16]
    234c:	4e 02 90    	mov.w     [w14+8], w4
    234e:	80 02 eb    	clr.w     w5
    2350:	15 0a 98    	mov.w     w5, [w4+18]
    2352:	4e 02 90    	mov.w     [w14+8], w4
    2354:	80 02 eb    	clr.w     w5
    2356:	25 0a 98    	mov.w     w5, [w4+20]
    2358:	15 3a 80    	mov.w     0x742, w5
    235a:	f4 0b 20    	mov.w     #0xbf, w4
    235c:	04 83 62    	and.w     w5, w4, w6
    235e:	64 04 20    	mov.w     #0x46, w4
    2360:	75 05 20    	mov.w     #0x57, w5
    2362:	27 74 20    	mov.w     #0x742, w7
    2364:	84 4b 78    	mov.b     w4, [w7]
    2366:	85 4b 78    	mov.b     w5, [w7]
    2368:	86 4b 78    	mov.b     w6, [w7]
    236a:	3e 02 90    	mov.w     [w14+6], w4
    236c:	74 02 90    	mov.w     [w4+14], w4
    236e:	be 02 90    	mov.w     [w14+6], w5
    2370:	f5 02 90    	mov.w     [w5+14], w5
    2372:	15 03 78    	mov.w     [w5], w6
    2374:	be 02 90    	mov.w     [w14+6], w5
    2376:	a5 4a 90    	mov.b     [w5+10], w5
    2378:	85 82 fb    	ze        w5, w5
    237a:	f7 03 20    	mov.w     #0x3f, w7
    237c:	85 3a dd    	sl.w      w7, w5, w5
    237e:	85 82 ea    	com.w     w5, w5
    2380:	85 02 63    	and.w     w6, w5, w5
    2382:	05 0a 78    	mov.w     w5, [w4]
    2384:	3e 02 90    	mov.w     [w14+6], w4
    2386:	74 02 90    	mov.w     [w4+14], w4
    2388:	be 02 90    	mov.w     [w14+6], w5
    238a:	f5 02 90    	mov.w     [w5+14], w5
    238c:	15 03 78    	mov.w     [w5], w6
    238e:	9e 02 78    	mov.w     [w14], w5
    2390:	c5 0b 90    	mov.w     [w5+24], w7
    2392:	be 02 90    	mov.w     [w14+6], w5
    2394:	a5 4a 90    	mov.b     [w5+10], w5
    2396:	85 82 fb    	ze        w5, w5
    2398:	85 3a dd    	sl.w      w7, w5, w5
    239a:	86 82 72    	ior.w     w5, w6, w5
    239c:	05 0a 78    	mov.w     w5, [w4]
    239e:	1e 02 78    	mov.w     [w14], w4
    23a0:	14 0a 90    	mov.w     [w4+18], w4
    23a2:	9e 02 78    	mov.w     [w14], w5
    23a4:	95 0a 90    	mov.w     [w5+18], w5
    23a6:	15 03 78    	mov.w     [w5], w6
    23a8:	9e 02 78    	mov.w     [w14], w5
    23aa:	d5 52 90    	mov.b     [w5+21], w5
    23ac:	85 82 fb    	ze        w5, w5
    23ae:	f7 03 20    	mov.w     #0x3f, w7
    23b0:	85 3a dd    	sl.w      w7, w5, w5
    23b2:	85 82 ea    	com.w     w5, w5
    23b4:	85 02 63    	and.w     w6, w5, w5
    23b6:	05 0a 78    	mov.w     w5, [w4]
    23b8:	1e 02 78    	mov.w     [w14], w4
    23ba:	14 0a 90    	mov.w     [w4+18], w4
    23bc:	9e 02 78    	mov.w     [w14], w5
    23be:	95 0a 90    	mov.w     [w5+18], w5
    23c0:	15 03 78    	mov.w     [w5], w6
    23c2:	ce 02 90    	mov.w     [w14+8], w5
    23c4:	e5 03 90    	mov.w     [w5+12], w7
    23c6:	9e 02 78    	mov.w     [w14], w5
    23c8:	d5 52 90    	mov.b     [w5+21], w5
    23ca:	85 82 fb    	ze        w5, w5
    23cc:	85 3a dd    	sl.w      w7, w5, w5
    23ce:	86 82 72    	ior.w     w5, w6, w5
    23d0:	05 0a 78    	mov.w     w5, [w4]
    23d2:	15 3a 80    	mov.w     0x742, w5
    23d4:	04 04 20    	mov.w     #0x40, w4
    23d6:	05 03 72    	ior.w     w4, w5, w6
    23d8:	64 04 20    	mov.w     #0x46, w4
    23da:	75 05 20    	mov.w     #0x57, w5
    23dc:	27 74 20    	mov.w     #0x742, w7
    23de:	84 4b 78    	mov.b     w4, [w7]
    23e0:	85 4b 78    	mov.b     w5, [w7]
    23e2:	86 4b 78    	mov.b     w6, [w7]
    23e4:	0a 00 37    	bra       0x23fa <.L51>

000023e6 <.L50>:
    23e6:	1e 02 78    	mov.w     [w14], w4
    23e8:	f4 0a 90    	mov.w     [w4+30], w5
    23ea:	3e 02 90    	mov.w     [w14+6], w4
    23ec:	84 8f 52    	sub.w     w5, w4, [w15]
    23ee:	2c 01 3a    	bra       NZ, 0x2648 <.L79>
    23f0:	1e 02 78    	mov.w     [w14], w4
    23f2:	84 12 90    	mov.w     [w4+32], w5
    23f4:	4e 02 90    	mov.w     [w14+8], w4
    23f6:	84 8f 52    	sub.w     w5, w4, [w15]
    23f8:	29 01 3a    	bra       NZ, 0x264c <.L80>

000023fa <.L51>:
    23fa:	1e 02 78    	mov.w     [w14], w4
    23fc:	14 02 78    	mov.w     [w4], w4
    23fe:	05 20 20    	mov.w     #0x200, w5
    2400:	05 0a 78    	mov.w     w5, [w4]
    2402:	06 00 37    	bra       0x2410 <.L53>

00002404 <.L47>:
    2404:	3e 02 90    	mov.w     [w14+6], w4
    2406:	e0 0f 52    	sub.w     w4, #0x0, [w15]
    2408:	23 01 3a    	bra       NZ, 0x2650 <.L81>
    240a:	4e 02 90    	mov.w     [w14+8], w4
    240c:	e0 0f 52    	sub.w     w4, #0x0, [w15]
    240e:	22 01 3a    	bra       NZ, 0x2654 <.L82>

00002410 <.L53>:
    2410:	18 c0 b3    	mov.b     #0x1, w8
    2412:	02 40 22    	mov.w     #0x2400, w2
    2414:	43 a7 24    	mov.w     #0x4a74, w3
    2416:	5e 00 90    	mov.w     [w14+10], w0
    2418:	ee 00 90    	mov.w     [w14+12], w1
    241a:	f1 f6 07    	rcall     0x11fe <___gesf2>
    241c:	00 02 78    	mov.w     w0, w4
    241e:	e0 0f 52    	sub.w     w4, #0x0, [w15]
    2420:	01 00 3c    	bra       GT, 0x2424 <.L55>
    2422:	00 44 eb    	clr.b     w8

00002424 <.L55>:
    2424:	e0 4f 54    	sub.b     w8, #0x0, [w15]
    2426:	04 00 32    	bra       Z, 0x2430 <.L56>
    2428:	04 40 22    	mov.w     #0x2400, w4
    242a:	45 a7 24    	mov.w     #0x4a74, w5
    242c:	54 07 98    	mov.w     w4, [w14+10]
    242e:	65 07 98    	mov.w     w5, [w14+12]

00002430 <.L56>:
    2430:	18 c0 b3    	mov.b     #0x1, w8
    2432:	02 40 22    	mov.w     #0x2400, w2
    2434:	43 17 24    	mov.w     #0x4174, w3
    2436:	5e 00 90    	mov.w     [w14+10], w0
    2438:	ee 00 90    	mov.w     [w14+12], w1
    243a:	d4 f7 07    	rcall     0x13e4 <___eqsf2>
    243c:	00 02 78    	mov.w     w0, w4
    243e:	e0 0f 52    	sub.w     w4, #0x0, [w15]
    2440:	01 00 35    	bra       LT, 0x2444 <.L57>
    2442:	00 44 eb    	clr.b     w8

00002444 <.L57>:
    2444:	e0 4f 54    	sub.b     w8, #0x0, [w15]
    2446:	04 00 32    	bra       Z, 0x2450 <.L58>
    2448:	04 40 22    	mov.w     #0x2400, w4
    244a:	45 17 24    	mov.w     #0x4174, w5
    244c:	54 07 98    	mov.w     w4, [w14+10]
    244e:	65 07 98    	mov.w     w5, [w14+12]

00002450 <.L58>:
    2450:	18 c0 b3    	mov.b     #0x1, w8
    2452:	02 40 22    	mov.w     #0x2400, w2
    2454:	43 27 24    	mov.w     #0x4274, w3
    2456:	5e 00 90    	mov.w     [w14+10], w0
    2458:	ee 00 90    	mov.w     [w14+12], w1
    245a:	c4 f7 07    	rcall     0x13e4 <___eqsf2>
    245c:	00 02 78    	mov.w     w0, w4
    245e:	e0 0f 52    	sub.w     w4, #0x0, [w15]
    2460:	01 00 34    	bra       LE, 0x2464 <.L59>
    2462:	00 44 eb    	clr.b     w8

00002464 <.L59>:
    2464:	e0 4f 54    	sub.b     w8, #0x0, [w15]
    2466:	14 00 32    	bra       Z, 0x2490 <.L60>
    2468:	1e 02 78    	mov.w     [w14], w4
    246a:	44 04 90    	mov.w     [w4+8], w8
    246c:	5e 01 90    	mov.w     [w14+10], w2
    246e:	ee 01 90    	mov.w     [w14+12], w3
    2470:	00 40 22    	mov.w     #0x2400, w0
    2472:	41 97 24    	mov.w     #0x4974, w1
    2474:	75 f7 07    	rcall     0x1360 <___divsf3>
    2476:	00 02 be    	mov.d     w0, w4
    2478:	02 00 20    	mov.w     #0x0, w2
    247a:	03 f0 23    	mov.w     #0x3f00, w3
    247c:	04 00 be    	mov.d     w4, w0
    247e:	13 f7 07    	rcall     0x12a6 <___addsf3>
    2480:	00 02 be    	mov.d     w0, w4
    2482:	04 00 be    	mov.d     w4, w0
    2484:	f2 f6 07    	rcall     0x126a <___fixunssfsi>
    2486:	00 02 be    	mov.d     w0, w4
    2488:	04 02 78    	mov.w     w4, w4
    248a:	04 02 e9    	dec.w     w4, w4
    248c:	04 0c 78    	mov.w     w4, [w8]
    248e:	1a 00 37    	bra       0x24c4 <.L61>

00002490 <.L60>:
    2490:	1e 02 78    	mov.w     [w14], w4
    2492:	14 02 78    	mov.w     [w4], w4
    2494:	9e 02 78    	mov.w     [w14], w5
    2496:	95 02 78    	mov.w     [w5], w5
    2498:	95 02 78    	mov.w     [w5], w5
    249a:	05 30 a0    	bset.w    w5, #0x3
    249c:	05 0a 78    	mov.w     w5, [w4]
    249e:	1e 02 78    	mov.w     [w14], w4
    24a0:	44 04 90    	mov.w     [w4+8], w8
    24a2:	5e 01 90    	mov.w     [w14+10], w2
    24a4:	ee 01 90    	mov.w     [w14+12], w3
    24a6:	00 40 22    	mov.w     #0x2400, w0
    24a8:	41 a7 24    	mov.w     #0x4a74, w1
    24aa:	5a f7 07    	rcall     0x1360 <___divsf3>
    24ac:	00 02 be    	mov.d     w0, w4
    24ae:	02 00 20    	mov.w     #0x0, w2
    24b0:	03 f0 23    	mov.w     #0x3f00, w3
    24b2:	04 00 be    	mov.d     w4, w0
    24b4:	f8 f6 07    	rcall     0x12a6 <___addsf3>
    24b6:	00 02 be    	mov.d     w0, w4
    24b8:	04 00 be    	mov.d     w4, w0
    24ba:	d7 f6 07    	rcall     0x126a <___fixunssfsi>
    24bc:	00 02 be    	mov.d     w0, w4
    24be:	04 02 78    	mov.w     w4, w4
    24c0:	04 02 e9    	dec.w     w4, w4
    24c2:	04 0c 78    	mov.w     w4, [w8]

000024c4 <.L61>:
    24c4:	ee 4a 90    	mov.b     [w14+14], w5
    24c6:	54 c4 b3    	mov.b     #0x45, w4
    24c8:	84 cf 52    	sub.b     w5, w4, [w15]
    24ca:	04 00 32    	bra       Z, 0x24d4 <.L62>
    24cc:	ee 4a 90    	mov.b     [w14+14], w5
    24ce:	54 c6 b3    	mov.b     #0x65, w4
    24d0:	84 cf 52    	sub.b     w5, w4, [w15]
    24d2:	08 00 3a    	bra       NZ, 0x24e4 <.L63>

000024d4 <.L62>:
    24d4:	1e 02 78    	mov.w     [w14], w4
    24d6:	14 02 78    	mov.w     [w4], w4
    24d8:	9e 02 78    	mov.w     [w14], w5
    24da:	95 02 78    	mov.w     [w5], w5
    24dc:	95 02 78    	mov.w     [w5], w5
    24de:	05 10 a0    	bset.w    w5, #0x1
    24e0:	05 0a 78    	mov.w     w5, [w4]
    24e2:	18 00 37    	bra       0x2514 <.L64>

000024e4 <.L63>:
    24e4:	ee 4a 90    	mov.b     [w14+14], w5
    24e6:	f4 c4 b3    	mov.b     #0x4f, w4
    24e8:	84 cf 52    	sub.b     w5, w4, [w15]
    24ea:	04 00 32    	bra       Z, 0x24f4 <.L65>
    24ec:	ee 4a 90    	mov.b     [w14+14], w5
    24ee:	f4 c6 b3    	mov.b     #0x6f, w4
    24f0:	84 cf 52    	sub.b     w5, w4, [w15]
    24f2:	08 00 3a    	bra       NZ, 0x2504 <.L66>

000024f4 <.L65>:
    24f4:	1e 02 78    	mov.w     [w14], w4
    24f6:	14 02 78    	mov.w     [w4], w4
    24f8:	9e 02 78    	mov.w     [w14], w5
    24fa:	95 02 78    	mov.w     [w5], w5
    24fc:	95 02 78    	mov.w     [w5], w5
    24fe:	05 20 a0    	bset.w    w5, #0x2
    2500:	05 0a 78    	mov.w     w5, [w4]
    2502:	08 00 37    	bra       0x2514 <.L64>

00002504 <.L66>:
    2504:	ee 4a 90    	mov.b     [w14+14], w5
    2506:	e4 c4 b3    	mov.b     #0x4e, w4
    2508:	84 cf 52    	sub.b     w5, w4, [w15]
    250a:	04 00 32    	bra       Z, 0x2514 <.L64>
    250c:	ee 4a 90    	mov.b     [w14+14], w5
    250e:	e4 c6 b3    	mov.b     #0x6e, w4
    2510:	84 cf 52    	sub.b     w5, w4, [w15]
    2512:	a2 00 3a    	bra       NZ, 0x2658 <.L83>

00002514 <.L64>:
    2514:	4e ba 97    	mov.w     [w14-8], w4
    2516:	e2 0f 52    	sub.w     w4, #0x2, [w15]
    2518:	08 00 3a    	bra       NZ, 0x252a <.L67>
    251a:	1e 02 78    	mov.w     [w14], w4
    251c:	14 02 78    	mov.w     [w4], w4
    251e:	9e 02 78    	mov.w     [w14], w5
    2520:	95 02 78    	mov.w     [w5], w5
    2522:	95 02 78    	mov.w     [w5], w5
    2524:	05 00 a0    	bset.w    w5, #0x0
    2526:	05 0a 78    	mov.w     w5, [w4]
    2528:	03 00 37    	bra       0x2530 <.L68>

0000252a <.L67>:
    252a:	4e ba 97    	mov.w     [w14-8], w4
    252c:	e1 0f 52    	sub.w     w4, #0x1, [w15]
    252e:	96 00 3a    	bra       NZ, 0x265c <.L84>

00002530 <.L68>:
    2530:	2e ba 97    	mov.w     [w14-12], w4
    2532:	e0 0f 52    	sub.w     w4, #0x0, [w15]
    2534:	04 00 3a    	bra       NZ, 0x253e <.L69>
    2536:	1e 02 78    	mov.w     [w14], w4
    2538:	45 c4 21    	mov.w     #0x1c44, w5
    253a:	45 1a 98    	mov.w     w5, [w4+56]
    253c:	36 00 37    	bra       0x25aa <.L70>

0000253e <.L69>:
    253e:	1e 02 78    	mov.w     [w14], w4
    2540:	14 02 90    	mov.w     [w4+2], w4
    2542:	9e 02 78    	mov.w     [w14], w5
    2544:	95 02 90    	mov.w     [w5+2], w5
    2546:	15 03 78    	mov.w     [w5], w6
    2548:	05 00 22    	mov.w     #0x2000, w5
    254a:	86 82 72    	ior.w     w5, w6, w5
    254c:	05 0a 78    	mov.w     w5, [w4]
    254e:	1e 02 78    	mov.w     [w14], w4
    2550:	ae ba 97    	mov.w     [w14-12], w5
    2552:	15 12 98    	mov.w     w5, [w4+34]
    2554:	1e 02 78    	mov.w     [w14], w4
    2556:	9e ba 97    	mov.w     [w14-14], w5
    2558:	25 12 98    	mov.w     w5, [w4+36]
    255a:	1e 02 78    	mov.w     [w14], w4
    255c:	80 02 eb    	clr.w     w5
    255e:	35 12 98    	mov.w     w5, [w4+38]
    2560:	1e 02 78    	mov.w     [w14], w4
    2562:	80 02 eb    	clr.w     w5
    2564:	45 12 98    	mov.w     w5, [w4+40]
    2566:	1e 02 78    	mov.w     [w14], w4
    2568:	80 02 eb    	clr.w     w5
    256a:	55 12 98    	mov.w     w5, [w4+42]
    256c:	1e 02 78    	mov.w     [w14], w4
    256e:	be ba 97    	mov.w     [w14-10], w5
    2570:	35 1a 98    	mov.w     w5, [w4+54]
    2572:	1e 02 78    	mov.w     [w14], w4
    2574:	85 c8 21    	mov.w     #0x1c88, w5
    2576:	45 1a 98    	mov.w     w5, [w4+56]
    2578:	1e 02 78    	mov.w     [w14], w4
    257a:	54 02 90    	mov.w     [w4+10], w4
    257c:	9e 02 78    	mov.w     [w14], w5
    257e:	d5 02 90    	mov.w     [w5+10], w5
    2580:	15 03 78    	mov.w     [w5], w6
    2582:	9e 02 78    	mov.w     [w14], w5
    2584:	e5 4a 90    	mov.b     [w5+14], w5
    2586:	85 82 fb    	ze        w5, w5
    2588:	17 00 20    	mov.w     #0x1, w7
    258a:	85 3a dd    	sl.w      w7, w5, w5
    258c:	85 82 ea    	com.w     w5, w5
    258e:	85 02 63    	and.w     w6, w5, w5
    2590:	05 0a 78    	mov.w     w5, [w4]
    2592:	1e 02 78    	mov.w     [w14], w4
    2594:	64 02 90    	mov.w     [w4+12], w4
    2596:	9e 02 78    	mov.w     [w14], w5
    2598:	e5 02 90    	mov.w     [w5+12], w5
    259a:	15 03 78    	mov.w     [w5], w6
    259c:	9e 02 78    	mov.w     [w14], w5
    259e:	e5 4a 90    	mov.b     [w5+14], w5
    25a0:	85 82 fb    	ze        w5, w5
    25a2:	17 00 20    	mov.w     #0x1, w7
    25a4:	85 3a dd    	sl.w      w7, w5, w5
    25a6:	86 82 72    	ior.w     w5, w6, w5
    25a8:	05 0a 78    	mov.w     w5, [w4]

000025aa <.L70>:
    25aa:	0e ba 97    	mov.w     [w14-16], w4
    25ac:	e0 0f 52    	sub.w     w4, #0x0, [w15]
    25ae:	04 00 3a    	bra       NZ, 0x25b8 <.L71>
    25b0:	1e 02 78    	mov.w     [w14], w4
    25b2:	85 c6 21    	mov.w     #0x1c68, w5
    25b4:	55 1a 98    	mov.w     w5, [w4+58]
    25b6:	2b 00 37    	bra       0x260e <.L72>

000025b8 <.L71>:
    25b8:	1e 02 78    	mov.w     [w14], w4
    25ba:	8e ba 97    	mov.w     [w14-16], w5
    25bc:	65 12 98    	mov.w     w5, [w4+44]
    25be:	1e 02 78    	mov.w     [w14], w4
    25c0:	fe b2 97    	mov.w     [w14-18], w5
    25c2:	75 12 98    	mov.w     w5, [w4+46]
    25c4:	1e 02 78    	mov.w     [w14], w4
    25c6:	80 02 eb    	clr.w     w5
    25c8:	05 1a 98    	mov.w     w5, [w4+48]
    25ca:	1e 02 78    	mov.w     [w14], w4
    25cc:	80 02 eb    	clr.w     w5
    25ce:	15 1a 98    	mov.w     w5, [w4+50]
    25d0:	1e 02 78    	mov.w     [w14], w4
    25d2:	80 02 eb    	clr.w     w5
    25d4:	25 1a 98    	mov.w     w5, [w4+52]
    25d6:	1e 02 78    	mov.w     [w14], w4
    25d8:	65 d7 21    	mov.w     #0x1d76, w5
    25da:	55 1a 98    	mov.w     w5, [w4+58]
    25dc:	1e 02 78    	mov.w     [w14], w4
    25de:	54 02 90    	mov.w     [w4+10], w4
    25e0:	9e 02 78    	mov.w     [w14], w5
    25e2:	d5 02 90    	mov.w     [w5+10], w5
    25e4:	15 03 78    	mov.w     [w5], w6
    25e6:	9e 02 78    	mov.w     [w14], w5
    25e8:	f5 4a 90    	mov.b     [w5+15], w5
    25ea:	85 82 fb    	ze        w5, w5
    25ec:	17 00 20    	mov.w     #0x1, w7
    25ee:	85 3a dd    	sl.w      w7, w5, w5
    25f0:	85 82 ea    	com.w     w5, w5
    25f2:	85 02 63    	and.w     w6, w5, w5
    25f4:	05 0a 78    	mov.w     w5, [w4]
    25f6:	1e 02 78    	mov.w     [w14], w4
    25f8:	64 02 90    	mov.w     [w4+12], w4
    25fa:	9e 02 78    	mov.w     [w14], w5
    25fc:	e5 02 90    	mov.w     [w5+12], w5
    25fe:	15 03 78    	mov.w     [w5], w6
    2600:	9e 02 78    	mov.w     [w14], w5
    2602:	f5 4a 90    	mov.b     [w5+15], w5
    2604:	85 82 fb    	ze        w5, w5
    2606:	17 00 20    	mov.w     #0x1, w7
    2608:	85 3a dd    	sl.w      w7, w5, w5
    260a:	86 82 72    	ior.w     w5, w6, w5
    260c:	05 0a 78    	mov.w     w5, [w4]

0000260e <.L72>:
    260e:	1e 02 78    	mov.w     [w14], w4
    2610:	14 02 78    	mov.w     [w4], w4
    2612:	9e 02 78    	mov.w     [w14], w5
    2614:	95 02 78    	mov.w     [w5], w5
    2616:	15 03 78    	mov.w     [w5], w6
    2618:	05 00 28    	mov.w     #0x8000, w5
    261a:	86 82 72    	ior.w     w5, w6, w5
    261c:	05 0a 78    	mov.w     w5, [w4]
    261e:	1e 02 78    	mov.w     [w14], w4
    2620:	14 02 90    	mov.w     [w4+2], w4
    2622:	9e 02 78    	mov.w     [w14], w5
    2624:	95 02 90    	mov.w     [w5+2], w5
    2626:	15 03 78    	mov.w     [w5], w6
    2628:	05 40 20    	mov.w     #0x400, w5
    262a:	86 82 72    	ior.w     w5, w6, w5
    262c:	05 0a 78    	mov.w     w5, [w4]
    262e:	17 00 37    	bra       0x265e <.L40>

00002630 <.L73>:
    2630:	00 00 00    	nop       
    2632:	15 00 37    	bra       0x265e <.L40>

00002634 <.L74>:
    2634:	00 00 00    	nop       
    2636:	13 00 37    	bra       0x265e <.L40>

00002638 <.L75>:
    2638:	00 00 00    	nop       
    263a:	11 00 37    	bra       0x265e <.L40>

0000263c <.L76>:
    263c:	00 00 00    	nop       
    263e:	0f 00 37    	bra       0x265e <.L40>

00002640 <.L77>:
    2640:	00 00 00    	nop       
    2642:	0d 00 37    	bra       0x265e <.L40>

00002644 <.L78>:
    2644:	00 00 00    	nop       
    2646:	0b 00 37    	bra       0x265e <.L40>

00002648 <.L79>:
    2648:	00 00 00    	nop       
    264a:	09 00 37    	bra       0x265e <.L40>

0000264c <.L80>:
    264c:	00 00 00    	nop       
    264e:	07 00 37    	bra       0x265e <.L40>

00002650 <.L81>:
    2650:	00 00 00    	nop       
    2652:	05 00 37    	bra       0x265e <.L40>

00002654 <.L82>:
    2654:	00 00 00    	nop       
    2656:	03 00 37    	bra       0x265e <.L40>

00002658 <.L83>:
    2658:	00 00 00    	nop       
    265a:	01 00 37    	bra       0x265e <.L40>

0000265c <.L84>:
    265c:	00 00 00    	nop       

0000265e <.L40>:
    265e:	4f 04 78    	mov.w     [--w15], w8
    2660:	00 80 fa    	ulnk      
    2662:	00 00 06    	return    

00002664 <_uart_close>:
    2664:	02 00 fa    	lnk       #0x2
    2666:	00 0f 78    	mov.w     w0, [w14]
    2668:	1e 02 78    	mov.w     [w14], w4
    266a:	14 02 90    	mov.w     [w4+2], w4
    266c:	9e 02 78    	mov.w     [w14], w5
    266e:	95 02 90    	mov.w     [w5+2], w5
    2670:	15 03 78    	mov.w     [w5], w6
    2672:	f5 bf 2f    	mov.w     #0xfbff, w5
    2674:	85 02 63    	and.w     w6, w5, w5
    2676:	05 0a 78    	mov.w     w5, [w4]
    2678:	1e 02 78    	mov.w     [w14], w4
    267a:	14 02 78    	mov.w     [w4], w4
    267c:	80 02 eb    	clr.w     w5
    267e:	05 0a 78    	mov.w     w5, [w4]
    2680:	1e 02 78    	mov.w     [w14], w4
    2682:	64 02 90    	mov.w     [w4+12], w4
    2684:	9e 02 78    	mov.w     [w14], w5
    2686:	e5 02 90    	mov.w     [w5+12], w5
    2688:	15 03 78    	mov.w     [w5], w6
    268a:	9e 02 78    	mov.w     [w14], w5
    268c:	e5 4a 90    	mov.b     [w5+14], w5
    268e:	85 82 fb    	ze        w5, w5
    2690:	17 00 20    	mov.w     #0x1, w7
    2692:	85 3a dd    	sl.w      w7, w5, w5
    2694:	85 82 ea    	com.w     w5, w5
    2696:	85 02 63    	and.w     w6, w5, w5
    2698:	05 0a 78    	mov.w     w5, [w4]
    269a:	1e 02 78    	mov.w     [w14], w4
    269c:	64 02 90    	mov.w     [w4+12], w4
    269e:	9e 02 78    	mov.w     [w14], w5
    26a0:	e5 02 90    	mov.w     [w5+12], w5
    26a2:	15 03 78    	mov.w     [w5], w6
    26a4:	9e 02 78    	mov.w     [w14], w5
    26a6:	f5 4a 90    	mov.b     [w5+15], w5
    26a8:	85 82 fb    	ze        w5, w5
    26aa:	17 00 20    	mov.w     #0x1, w7
    26ac:	85 3a dd    	sl.w      w7, w5, w5
    26ae:	85 82 ea    	com.w     w5, w5
    26b0:	85 02 63    	and.w     w6, w5, w5
    26b2:	05 0a 78    	mov.w     w5, [w4]
    26b4:	1e 02 78    	mov.w     [w14], w4
    26b6:	80 02 eb    	clr.w     w5
    26b8:	45 1a 98    	mov.w     w5, [w4+56]
    26ba:	1e 02 78    	mov.w     [w14], w4
    26bc:	80 02 eb    	clr.w     w5
    26be:	55 1a 98    	mov.w     w5, [w4+58]
    26c0:	1e 02 78    	mov.w     [w14], w4
    26c2:	54 0a 90    	mov.w     [w4+26], w4
    26c4:	e0 0f 52    	sub.w     w4, #0x0, [w15]
    26c6:	31 00 32    	bra       Z, 0x272a <.L86>
    26c8:	15 3a 80    	mov.w     0x742, w5
    26ca:	f4 0b 20    	mov.w     #0xbf, w4
    26cc:	04 83 62    	and.w     w5, w4, w6
    26ce:	64 04 20    	mov.w     #0x46, w4
    26d0:	75 05 20    	mov.w     #0x57, w5
    26d2:	27 74 20    	mov.w     #0x742, w7
    26d4:	84 4b 78    	mov.b     w4, [w7]
    26d6:	85 4b 78    	mov.b     w5, [w7]
    26d8:	86 4b 78    	mov.b     w6, [w7]
    26da:	1e 02 78    	mov.w     [w14], w4
    26dc:	54 0a 90    	mov.w     [w4+26], w4
    26de:	74 02 90    	mov.w     [w4+14], w4
    26e0:	9e 02 78    	mov.w     [w14], w5
    26e2:	d5 0a 90    	mov.w     [w5+26], w5
    26e4:	f5 02 90    	mov.w     [w5+14], w5
    26e6:	15 03 78    	mov.w     [w5], w6
    26e8:	9e 02 78    	mov.w     [w14], w5
    26ea:	d5 0a 90    	mov.w     [w5+26], w5
    26ec:	a5 4a 90    	mov.b     [w5+10], w5
    26ee:	85 82 fb    	ze        w5, w5
    26f0:	f7 03 20    	mov.w     #0x3f, w7
    26f2:	85 3a dd    	sl.w      w7, w5, w5
    26f4:	85 82 ea    	com.w     w5, w5
    26f6:	85 02 63    	and.w     w6, w5, w5
    26f8:	05 0a 78    	mov.w     w5, [w4]
    26fa:	15 3a 80    	mov.w     0x742, w5
    26fc:	04 04 20    	mov.w     #0x40, w4
    26fe:	05 03 72    	ior.w     w4, w5, w6
    2700:	64 04 20    	mov.w     #0x46, w4
    2702:	75 05 20    	mov.w     #0x57, w5
    2704:	27 74 20    	mov.w     #0x742, w7
    2706:	84 4b 78    	mov.b     w4, [w7]
    2708:	85 4b 78    	mov.b     w5, [w7]
    270a:	86 4b 78    	mov.b     w6, [w7]
    270c:	1e 02 78    	mov.w     [w14], w4
    270e:	54 0a 90    	mov.w     [w4+26], w4
    2710:	80 02 eb    	clr.w     w5
    2712:	05 0a 98    	mov.w     w5, [w4+16]
    2714:	1e 02 78    	mov.w     [w14], w4
    2716:	54 0a 90    	mov.w     [w4+26], w4
    2718:	04 00 78    	mov.w     w4, w0
    271a:	b1 05 07    	rcall     0x327e <_pin_digitalOut>
    271c:	1e 02 78    	mov.w     [w14], w4
    271e:	54 0a 90    	mov.w     [w4+26], w4
    2720:	04 00 78    	mov.w     w4, w0
    2722:	0a 06 07    	rcall     0x3338 <_pin_set>
    2724:	1e 02 78    	mov.w     [w14], w4
    2726:	80 02 eb    	clr.w     w5
    2728:	55 0a 98    	mov.w     w5, [w4+26]

0000272a <.L86>:
    272a:	1e 02 78    	mov.w     [w14], w4
    272c:	64 0a 90    	mov.w     [w4+28], w4
    272e:	e0 0f 52    	sub.w     w4, #0x0, [w15]
    2730:	29 00 32    	bra       Z, 0x2784 <.L87>
    2732:	15 3a 80    	mov.w     0x742, w5
    2734:	f4 0b 20    	mov.w     #0xbf, w4
    2736:	04 83 62    	and.w     w5, w4, w6
    2738:	64 04 20    	mov.w     #0x46, w4
    273a:	75 05 20    	mov.w     #0x57, w5
    273c:	27 74 20    	mov.w     #0x742, w7
    273e:	84 4b 78    	mov.b     w4, [w7]
    2740:	85 4b 78    	mov.b     w5, [w7]
    2742:	86 4b 78    	mov.b     w6, [w7]
    2744:	1e 02 78    	mov.w     [w14], w4
    2746:	04 0a 90    	mov.w     [w4+16], w4
    2748:	9e 02 78    	mov.w     [w14], w5
    274a:	85 0a 90    	mov.w     [w5+16], w5
    274c:	15 03 78    	mov.w     [w5], w6
    274e:	9e 02 78    	mov.w     [w14], w5
    2750:	c5 52 90    	mov.b     [w5+20], w5
    2752:	85 82 fb    	ze        w5, w5
    2754:	f7 03 20    	mov.w     #0x3f, w7
    2756:	85 3a dd    	sl.w      w7, w5, w5
    2758:	86 82 72    	ior.w     w5, w6, w5
    275a:	05 0a 78    	mov.w     w5, [w4]
    275c:	15 3a 80    	mov.w     0x742, w5
    275e:	04 04 20    	mov.w     #0x40, w4
    2760:	05 03 72    	ior.w     w4, w5, w6
    2762:	64 04 20    	mov.w     #0x46, w4
    2764:	75 05 20    	mov.w     #0x57, w5
    2766:	27 74 20    	mov.w     #0x742, w7
    2768:	84 4b 78    	mov.b     w4, [w7]
    276a:	85 4b 78    	mov.b     w5, [w7]
    276c:	86 4b 78    	mov.b     w6, [w7]
    276e:	1e 02 78    	mov.w     [w14], w4
    2770:	64 0a 90    	mov.w     [w4+28], w4
    2772:	80 02 eb    	clr.w     w5
    2774:	05 0a 98    	mov.w     w5, [w4+16]
    2776:	1e 02 78    	mov.w     [w14], w4
    2778:	64 0a 90    	mov.w     [w4+28], w4
    277a:	04 00 78    	mov.w     w4, w0
    277c:	59 05 07    	rcall     0x3230 <_pin_digitalIn>
    277e:	1e 02 78    	mov.w     [w14], w4
    2780:	80 02 eb    	clr.w     w5
    2782:	65 0a 98    	mov.w     w5, [w4+28]

00002784 <.L87>:
    2784:	1e 02 78    	mov.w     [w14], w4
    2786:	74 0a 90    	mov.w     [w4+30], w4
    2788:	e0 0f 52    	sub.w     w4, #0x0, [w15]
    278a:	31 00 32    	bra       Z, 0x27ee <.L88>
    278c:	15 3a 80    	mov.w     0x742, w5
    278e:	f4 0b 20    	mov.w     #0xbf, w4
    2790:	04 83 62    	and.w     w5, w4, w6
    2792:	64 04 20    	mov.w     #0x46, w4
    2794:	75 05 20    	mov.w     #0x57, w5
    2796:	27 74 20    	mov.w     #0x742, w7
    2798:	84 4b 78    	mov.b     w4, [w7]
    279a:	85 4b 78    	mov.b     w5, [w7]
    279c:	86 4b 78    	mov.b     w6, [w7]
    279e:	1e 02 78    	mov.w     [w14], w4
    27a0:	74 0a 90    	mov.w     [w4+30], w4
    27a2:	74 02 90    	mov.w     [w4+14], w4
    27a4:	9e 02 78    	mov.w     [w14], w5
    27a6:	f5 0a 90    	mov.w     [w5+30], w5
    27a8:	f5 02 90    	mov.w     [w5+14], w5
    27aa:	15 03 78    	mov.w     [w5], w6
    27ac:	9e 02 78    	mov.w     [w14], w5
    27ae:	f5 0a 90    	mov.w     [w5+30], w5
    27b0:	a5 4a 90    	mov.b     [w5+10], w5
    27b2:	85 82 fb    	ze        w5, w5
    27b4:	f7 03 20    	mov.w     #0x3f, w7
    27b6:	85 3a dd    	sl.w      w7, w5, w5
    27b8:	85 82 ea    	com.w     w5, w5
    27ba:	85 02 63    	and.w     w6, w5, w5
    27bc:	05 0a 78    	mov.w     w5, [w4]
    27be:	15 3a 80    	mov.w     0x742, w5
    27c0:	04 04 20    	mov.w     #0x40, w4
    27c2:	05 03 72    	ior.w     w4, w5, w6
    27c4:	64 04 20    	mov.w     #0x46, w4
    27c6:	75 05 20    	mov.w     #0x57, w5
    27c8:	27 74 20    	mov.w     #0x742, w7
    27ca:	84 4b 78    	mov.b     w4, [w7]
    27cc:	85 4b 78    	mov.b     w5, [w7]
    27ce:	86 4b 78    	mov.b     w6, [w7]
    27d0:	1e 02 78    	mov.w     [w14], w4
    27d2:	74 0a 90    	mov.w     [w4+30], w4
    27d4:	80 02 eb    	clr.w     w5
    27d6:	05 0a 98    	mov.w     w5, [w4+16]
    27d8:	1e 02 78    	mov.w     [w14], w4
    27da:	74 0a 90    	mov.w     [w4+30], w4
    27dc:	04 00 78    	mov.w     w4, w0
    27de:	4f 05 07    	rcall     0x327e <_pin_digitalOut>
    27e0:	1e 02 78    	mov.w     [w14], w4
    27e2:	74 0a 90    	mov.w     [w4+30], w4
    27e4:	04 00 78    	mov.w     w4, w0
    27e6:	a8 05 07    	rcall     0x3338 <_pin_set>
    27e8:	1e 02 78    	mov.w     [w14], w4
    27ea:	80 02 eb    	clr.w     w5
    27ec:	75 0a 98    	mov.w     w5, [w4+30]

000027ee <.L88>:
    27ee:	1e 02 78    	mov.w     [w14], w4
    27f0:	04 12 90    	mov.w     [w4+32], w4
    27f2:	e0 0f 52    	sub.w     w4, #0x0, [w15]
    27f4:	29 00 32    	bra       Z, 0x2848 <.L85>
    27f6:	15 3a 80    	mov.w     0x742, w5
    27f8:	f4 0b 20    	mov.w     #0xbf, w4
    27fa:	04 83 62    	and.w     w5, w4, w6
    27fc:	64 04 20    	mov.w     #0x46, w4
    27fe:	75 05 20    	mov.w     #0x57, w5
    2800:	27 74 20    	mov.w     #0x742, w7
    2802:	84 4b 78    	mov.b     w4, [w7]
    2804:	85 4b 78    	mov.b     w5, [w7]
    2806:	86 4b 78    	mov.b     w6, [w7]
    2808:	1e 02 78    	mov.w     [w14], w4
    280a:	14 0a 90    	mov.w     [w4+18], w4
    280c:	9e 02 78    	mov.w     [w14], w5
    280e:	95 0a 90    	mov.w     [w5+18], w5
    2810:	15 03 78    	mov.w     [w5], w6
    2812:	9e 02 78    	mov.w     [w14], w5
    2814:	d5 52 90    	mov.b     [w5+21], w5
    2816:	85 82 fb    	ze        w5, w5
    2818:	f7 03 20    	mov.w     #0x3f, w7
    281a:	85 3a dd    	sl.w      w7, w5, w5
    281c:	86 82 72    	ior.w     w5, w6, w5
    281e:	05 0a 78    	mov.w     w5, [w4]
    2820:	15 3a 80    	mov.w     0x742, w5
    2822:	04 04 20    	mov.w     #0x40, w4
    2824:	05 03 72    	ior.w     w4, w5, w6
    2826:	64 04 20    	mov.w     #0x46, w4
    2828:	75 05 20    	mov.w     #0x57, w5
    282a:	27 74 20    	mov.w     #0x742, w7
    282c:	84 4b 78    	mov.b     w4, [w7]
    282e:	85 4b 78    	mov.b     w5, [w7]
    2830:	86 4b 78    	mov.b     w6, [w7]
    2832:	1e 02 78    	mov.w     [w14], w4
    2834:	04 12 90    	mov.w     [w4+32], w4
    2836:	80 02 eb    	clr.w     w5
    2838:	05 0a 98    	mov.w     w5, [w4+16]
    283a:	1e 02 78    	mov.w     [w14], w4
    283c:	04 12 90    	mov.w     [w4+32], w4
    283e:	04 00 78    	mov.w     w4, w0
    2840:	f7 04 07    	rcall     0x3230 <_pin_digitalIn>
    2842:	1e 02 78    	mov.w     [w14], w4
    2844:	80 02 eb    	clr.w     w5
    2846:	05 12 98    	mov.w     w5, [w4+32]

00002848 <.L85>:
    2848:	00 80 fa    	ulnk      
    284a:	00 00 06    	return    

0000284c <_uart_putc>:
    284c:	04 00 fa    	lnk       #0x4
    284e:	00 0f 78    	mov.w     w0, [w14]
    2850:	21 47 98    	mov.b     w1, [w14+2]
    2852:	1e 02 78    	mov.w     [w14], w4
    2854:	44 1a 90    	mov.w     [w4+56], w4
    2856:	e0 0f 52    	sub.w     w4, #0x0, [w15]
    2858:	05 00 32    	bra       Z, 0x2864 <.L90>
    285a:	1e 02 78    	mov.w     [w14], w4
    285c:	44 1a 90    	mov.w     [w4+56], w4
    285e:	ae 40 90    	mov.b     [w14+2], w1
    2860:	1e 00 78    	mov.w     [w14], w0
    2862:	04 00 01    	call      w4

00002864 <.L90>:
    2864:	00 80 fa    	ulnk      
    2866:	00 00 06    	return    

00002868 <_uart_getc>:
    2868:	02 00 fa    	lnk       #0x2
    286a:	00 0f 78    	mov.w     w0, [w14]
    286c:	1e 02 78    	mov.w     [w14], w4
    286e:	54 1a 90    	mov.w     [w4+58], w4
    2870:	e0 0f 52    	sub.w     w4, #0x0, [w15]
    2872:	06 00 32    	bra       Z, 0x2880 <.L93>
    2874:	1e 02 78    	mov.w     [w14], w4
    2876:	54 1a 90    	mov.w     [w4+58], w4
    2878:	1e 00 78    	mov.w     [w14], w0
    287a:	04 00 01    	call      w4
    287c:	00 42 78    	mov.b     w0, w4
    287e:	01 00 37    	bra       0x2882 <.L94>

00002880 <.L93>:
    2880:	00 c2 eb    	setm.b    w4

00002882 <.L94>:
    2882:	04 40 78    	mov.b     w4, w0
    2884:	00 80 fa    	ulnk      
    2886:	00 00 06    	return    

00002888 <_uart_flushTxBuffer>:
    2888:	02 00 fa    	lnk       #0x2
    288a:	00 0f 78    	mov.w     w0, [w14]
    288c:	1e 02 78    	mov.w     [w14], w4
    288e:	14 02 90    	mov.w     [w4+2], w4
    2890:	94 02 78    	mov.w     [w4], w5
    2892:	04 40 20    	mov.w     #0x400, w4
    2894:	04 82 62    	and.w     w5, w4, w4
    2896:	e0 0f 52    	sub.w     w4, #0x0, [w15]
    2898:	08 00 3a    	bra       NZ, 0x28aa <.L95>
    289a:	1e 02 78    	mov.w     [w14], w4
    289c:	14 02 90    	mov.w     [w4+2], w4
    289e:	9e 02 78    	mov.w     [w14], w5
    28a0:	95 02 90    	mov.w     [w5+2], w5
    28a2:	15 03 78    	mov.w     [w5], w6
    28a4:	05 40 20    	mov.w     #0x400, w5
    28a6:	86 82 72    	ior.w     w5, w6, w5
    28a8:	05 0a 78    	mov.w     w5, [w4]

000028aa <.L95>:
    28aa:	00 80 fa    	ulnk      
    28ac:	00 00 06    	return    

000028ae <_uart_puts>:
    28ae:	04 00 fa    	lnk       #0x4
    28b0:	00 0f 78    	mov.w     w0, [w14]
    28b2:	11 07 98    	mov.w     w1, [w14+2]
    28b4:	08 00 37    	bra       0x28c6 <.L98>

000028b6 <.L99>:
    28b6:	1e 02 90    	mov.w     [w14+2], w4
    28b8:	14 42 78    	mov.b     [w4], w4
    28ba:	9e 02 90    	mov.w     [w14+2], w5
    28bc:	85 02 e8    	inc.w     w5, w5
    28be:	15 07 98    	mov.w     w5, [w14+2]
    28c0:	84 40 78    	mov.b     w4, w1
    28c2:	1e 00 78    	mov.w     [w14], w0
    28c4:	c3 ff 07    	rcall     0x284c <_uart_putc>

000028c6 <.L98>:
    28c6:	1e 02 90    	mov.w     [w14+2], w4
    28c8:	14 42 78    	mov.b     [w4], w4
    28ca:	e0 4f 52    	sub.b     w4, #0x0, [w15]
    28cc:	f4 ff 3a    	bra       NZ, 0x28b6 <.L99>
    28ce:	1e 00 78    	mov.w     [w14], w0
    28d0:	db ff 07    	rcall     0x2888 <_uart_flushTxBuffer>
    28d2:	00 80 fa    	ulnk      
    28d4:	00 00 06    	return    

000028d6 <_uart_gets>:
    28d6:	0a 00 fa    	lnk       #0xa
    28d8:	20 07 98    	mov.w     w0, [w14+4]
    28da:	31 07 98    	mov.w     w1, [w14+6]
    28dc:	42 07 98    	mov.w     w2, [w14+8]
    28de:	4e 02 90    	mov.w     [w14+8], w4
    28e0:	e0 0f 52    	sub.w     w4, #0x0, [w15]
    28e2:	88 00 32    	bra       Z, 0x29f4 <.L113>
    28e4:	4e 02 90    	mov.w     [w14+8], w4
    28e6:	e1 0f 52    	sub.w     w4, #0x1, [w15]
    28e8:	04 00 3a    	bra       NZ, 0x28f2 <.L103>
    28ea:	3e 02 90    	mov.w     [w14+6], w4
    28ec:	80 42 eb    	clr.b     w5
    28ee:	05 4a 78    	mov.b     w5, [w4]
    28f0:	82 00 37    	bra       0x29f6 <.L100>

000028f2 <.L103>:
    28f2:	b1 c1 b3    	mov.b     #0x1b, w1
    28f4:	2e 00 90    	mov.w     [w14+4], w0
    28f6:	aa ff 07    	rcall     0x284c <_uart_putc>
    28f8:	71 c3 b3    	mov.b     #0x37, w1
    28fa:	2e 00 90    	mov.w     [w14+4], w0
    28fc:	a7 ff 07    	rcall     0x284c <_uart_putc>
    28fe:	2e 00 90    	mov.w     [w14+4], w0
    2900:	c3 ff 07    	rcall     0x2888 <_uart_flushTxBuffer>
    2902:	3e 02 90    	mov.w     [w14+6], w4
    2904:	14 07 98    	mov.w     w4, [w14+2]
    2906:	4e 02 90    	mov.w     [w14+8], w4
    2908:	04 0f 78    	mov.w     w4, [w14]
    290a:	03 00 37    	bra       0x2912 <.L112>

0000290c <.L114>:
    290c:	00 00 00    	nop       
    290e:	01 00 37    	bra       0x2912 <.L112>

00002910 <.L115>:
    2910:	00 00 00    	nop       

00002912 <.L112>:
    2912:	2e 00 90    	mov.w     [w14+4], w0
    2914:	a9 ff 07    	rcall     0x2868 <_uart_getc>
    2916:	00 42 78    	mov.b     w0, w4
    2918:	be 02 90    	mov.w     [w14+6], w5
    291a:	84 4a 78    	mov.b     w4, [w5]
    291c:	3e 02 90    	mov.w     [w14+6], w4
    291e:	14 42 78    	mov.b     [w4], w4
    2920:	ed 4f 52    	sub.b     w4, #0xd, [w15]
    2922:	0c 00 3a    	bra       NZ, 0x293c <.L104>
    2924:	3e 02 90    	mov.w     [w14+6], w4
    2926:	80 42 eb    	clr.b     w5
    2928:	05 4a 78    	mov.b     w5, [w4]
    292a:	a1 c0 b3    	mov.b     #0xa, w1
    292c:	2e 00 90    	mov.w     [w14+4], w0
    292e:	8e ff 07    	rcall     0x284c <_uart_putc>
    2930:	d1 c0 b3    	mov.b     #0xd, w1
    2932:	2e 00 90    	mov.w     [w14+4], w0
    2934:	8b ff 07    	rcall     0x284c <_uart_putc>
    2936:	2e 00 90    	mov.w     [w14+4], w0
    2938:	a7 ff 07    	rcall     0x2888 <_uart_flushTxBuffer>
    293a:	5d 00 37    	bra       0x29f6 <.L100>

0000293c <.L104>:
    293c:	3e 02 90    	mov.w     [w14+6], w4
    293e:	14 42 78    	mov.b     [w4], w4
    2940:	fb 4f 52    	sub.b     w4, #0x1b, [w15]
    2942:	16 00 3a    	bra       NZ, 0x2970 <.L105>
    2944:	b1 c1 b3    	mov.b     #0x1b, w1
    2946:	2e 00 90    	mov.w     [w14+4], w0
    2948:	81 ff 07    	rcall     0x284c <_uart_putc>
    294a:	81 c3 b3    	mov.b     #0x38, w1
    294c:	2e 00 90    	mov.w     [w14+4], w0
    294e:	7e ff 07    	rcall     0x284c <_uart_putc>
    2950:	b1 c1 b3    	mov.b     #0x1b, w1
    2952:	2e 00 90    	mov.w     [w14+4], w0
    2954:	7b ff 07    	rcall     0x284c <_uart_putc>
    2956:	b1 c5 b3    	mov.b     #0x5b, w1
    2958:	2e 00 90    	mov.w     [w14+4], w0
    295a:	78 ff 07    	rcall     0x284c <_uart_putc>
    295c:	b1 c4 b3    	mov.b     #0x4b, w1
    295e:	2e 00 90    	mov.w     [w14+4], w0
    2960:	75 ff 07    	rcall     0x284c <_uart_putc>
    2962:	2e 00 90    	mov.w     [w14+4], w0
    2964:	91 ff 07    	rcall     0x2888 <_uart_flushTxBuffer>
    2966:	1e 02 90    	mov.w     [w14+2], w4
    2968:	34 07 98    	mov.w     w4, [w14+6]
    296a:	4e 02 90    	mov.w     [w14+8], w4
    296c:	04 0f 78    	mov.w     w4, [w14]
    296e:	41 00 37    	bra       0x29f2 <.L106>

00002970 <.L105>:
    2970:	3e 02 90    	mov.w     [w14+6], w4
    2972:	14 42 78    	mov.b     [w4], w4
    2974:	e8 4f 52    	sub.b     w4, #0x8, [w15]
    2976:	05 00 32    	bra       Z, 0x2982 <.L107>
    2978:	3e 02 90    	mov.w     [w14+6], w4
    297a:	94 42 78    	mov.b     [w4], w5
    297c:	f4 c7 b3    	mov.b     #0x7f, w4
    297e:	84 cf 52    	sub.b     w5, w4, [w15]
    2980:	1a 00 3a    	bra       NZ, 0x29b6 <.L108>

00002982 <.L107>:
    2982:	be 02 90    	mov.w     [w14+6], w5
    2984:	1e 02 90    	mov.w     [w14+2], w4
    2986:	84 8f 52    	sub.w     w5, w4, [w15]
    2988:	10 00 36    	bra       LEU, 0x29aa <.L109>
    298a:	81 c0 b3    	mov.b     #0x8, w1
    298c:	2e 00 90    	mov.w     [w14+4], w0
    298e:	5e ff 07    	rcall     0x284c <_uart_putc>
    2990:	01 c2 b3    	mov.b     #0x20, w1
    2992:	2e 00 90    	mov.w     [w14+4], w0
    2994:	5b ff 07    	rcall     0x284c <_uart_putc>
    2996:	81 c0 b3    	mov.b     #0x8, w1
    2998:	2e 00 90    	mov.w     [w14+4], w0
    299a:	58 ff 07    	rcall     0x284c <_uart_putc>
    299c:	2e 00 90    	mov.w     [w14+4], w0
    299e:	74 ff 07    	rcall     0x2888 <_uart_flushTxBuffer>
    29a0:	3e 02 90    	mov.w     [w14+6], w4
    29a2:	04 02 e9    	dec.w     w4, w4
    29a4:	34 07 98    	mov.w     w4, [w14+6]
    29a6:	1e 0f e8    	inc.w     [w14], [w14]
    29a8:	05 00 37    	bra       0x29b4 <.L110>

000029aa <.L109>:
    29aa:	71 c0 b3    	mov.b     #0x7, w1
    29ac:	2e 00 90    	mov.w     [w14+4], w0
    29ae:	4e ff 07    	rcall     0x284c <_uart_putc>
    29b0:	2e 00 90    	mov.w     [w14+4], w0
    29b2:	6a ff 07    	rcall     0x2888 <_uart_flushTxBuffer>

000029b4 <.L110>:
    29b4:	1e 00 37    	bra       0x29f2 <.L106>

000029b6 <.L108>:
    29b6:	1e 02 78    	mov.w     [w14], w4
    29b8:	e1 0f 52    	sub.w     w4, #0x1, [w15]
    29ba:	06 00 3a    	bra       NZ, 0x29c8 <.L111>
    29bc:	71 c0 b3    	mov.b     #0x7, w1
    29be:	2e 00 90    	mov.w     [w14+4], w0
    29c0:	45 ff 07    	rcall     0x284c <_uart_putc>
    29c2:	2e 00 90    	mov.w     [w14+4], w0
    29c4:	61 ff 07    	rcall     0x2888 <_uart_flushTxBuffer>
    29c6:	15 00 37    	bra       0x29f2 <.L106>

000029c8 <.L111>:
    29c8:	3e 02 90    	mov.w     [w14+6], w4
    29ca:	14 42 78    	mov.b     [w4], w4
    29cc:	ff 4f 52    	sub.b     w4, #0x1f, [w15]
    29ce:	9e ff 36    	bra       LEU, 0x290c <.L114>
    29d0:	3e 02 90    	mov.w     [w14+6], w4
    29d2:	94 42 78    	mov.b     [w4], w5
    29d4:	e4 c7 b3    	mov.b     #0x7e, w4
    29d6:	84 cf 52    	sub.b     w5, w4, [w15]
    29d8:	9b ff 3e    	bra       GTU, 0x2910 <.L115>
    29da:	3e 02 90    	mov.w     [w14+6], w4
    29dc:	14 42 78    	mov.b     [w4], w4
    29de:	84 40 78    	mov.b     w4, w1
    29e0:	2e 00 90    	mov.w     [w14+4], w0
    29e2:	34 ff 07    	rcall     0x284c <_uart_putc>
    29e4:	2e 00 90    	mov.w     [w14+4], w0
    29e6:	50 ff 07    	rcall     0x2888 <_uart_flushTxBuffer>
    29e8:	3e 02 90    	mov.w     [w14+6], w4
    29ea:	04 02 e8    	inc.w     w4, w4
    29ec:	34 07 98    	mov.w     w4, [w14+6]
    29ee:	1e 0f e9    	dec.w     [w14], [w14]
    29f0:	90 ff 37    	bra       0x2912 <.L112>

000029f2 <.L106>:
    29f2:	8f ff 37    	bra       0x2912 <.L112>

000029f4 <.L113>:
    29f4:	00 00 00    	nop       

000029f6 <.L100>:
    29f6:	00 80 fa    	ulnk      
    29f8:	00 00 06    	return    

000029fa <_timer_serviceInterrupt>:

_TIMER timer1, timer2, timer3, timer4, timer5;
float timer_multipliers[4] = { TCY, 8.*TCY, 64.*TCY, 256.*TCY };

void timer_serviceInterrupt(_TIMER *self) {
    29fa:	02 00 fa    	lnk       #0x2
    29fc:	00 0f 78    	mov.w     w0, [w14]
    timer_lower(self);
    29fe:	1e 00 78    	mov.w     [w14], w0
    2a00:	0e 02 07    	rcall     0x2e1e <_timer_lower>
    if (self->every) {
    2a02:	1e 02 78    	mov.w     [w14], w4
    2a04:	14 0a 90    	mov.w     [w4+18], w4
    2a06:	e0 0f 52    	sub.w     w4, #0x0, [w15]
    2a08:	05 00 32    	bra       Z, 0x2a14 <.L2>
        self->every(self);
    2a0a:	1e 02 78    	mov.w     [w14], w4
    2a0c:	14 0a 90    	mov.w     [w4+18], w4
    2a0e:	1e 00 78    	mov.w     [w14], w0
    2a10:	04 00 01    	call      w4
    2a12:	1a 00 37    	bra       0x2a48 <.L1>

00002a14 <.L2>:
    } else if (self->after) {
    2a14:	1e 02 78    	mov.w     [w14], w4
    2a16:	24 0a 90    	mov.w     [w4+20], w4
    2a18:	e0 0f 52    	sub.w     w4, #0x0, [w15]
    2a1a:	14 00 32    	bra       Z, 0x2a44 <.L4>
        if (self->aftercount) {
    2a1c:	1e 02 78    	mov.w     [w14], w4
    2a1e:	04 0a 90    	mov.w     [w4+16], w4
    2a20:	e0 0f 52    	sub.w     w4, #0x0, [w15]
    2a22:	0a 00 32    	bra       Z, 0x2a38 <.L5>
            self->after(self);
    2a24:	1e 02 78    	mov.w     [w14], w4
    2a26:	24 0a 90    	mov.w     [w4+20], w4
    2a28:	1e 00 78    	mov.w     [w14], w0
    2a2a:	04 00 01    	call      w4
            self->aftercount--;
    2a2c:	1e 02 78    	mov.w     [w14], w4
    2a2e:	04 0a 90    	mov.w     [w4+16], w4
    2a30:	84 02 e9    	dec.w     w4, w5
    2a32:	1e 02 78    	mov.w     [w14], w4
    2a34:	05 0a 98    	mov.w     w5, [w4+16]
    2a36:	08 00 37    	bra       0x2a48 <.L1>

00002a38 <.L5>:
        } else {
            timer_disableInterrupt(self);
    2a38:	1e 00 78    	mov.w     [w14], w0
    2a3a:	1a 02 07    	rcall     0x2e70 <_timer_disableInterrupt>
            self->after = NULL;
    2a3c:	1e 02 78    	mov.w     [w14], w4
    2a3e:	80 02 eb    	clr.w     w5
    2a40:	25 0a 98    	mov.w     w5, [w4+20]
    2a42:	02 00 37    	bra       0x2a48 <.L1>

00002a44 <.L4>:
        }
    } else {
        timer_disableInterrupt(self);
    2a44:	1e 00 78    	mov.w     [w14], w0
    2a46:	14 02 07    	rcall     0x2e70 <_timer_disableInterrupt>

00002a48 <.L1>:
    }
}
    2a48:	00 80 fa    	ulnk      
    2a4a:	00 00 06    	return    

00002a4c <__T1Interrupt>:

void __attribute__((interrupt, auto_psv)) _T1Interrupt(void) {
    2a4c:	36 00 f8    	push      0x36
    2a4e:	80 9f be    	mov.d     w0, [w15++]
    2a50:	82 9f be    	mov.d     w2, [w15++]
    2a52:	84 9f be    	mov.d     w4, [w15++]
    2a54:	86 9f be    	mov.d     w6, [w15++]
    2a56:	32 00 f8    	push      0x32
    2a58:	00 20 20    	mov.w     #0x200, w0
    2a5a:	90 01 88    	mov.w     w0, 0x32
    2a5c:	00 00 fa    	lnk       #0x0
    timer_serviceInterrupt(&timer1);
    2a5e:	80 ad 20    	mov.w     #0xad8, w0
    2a60:	cc ff 07    	rcall     0x29fa <_timer_serviceInterrupt>
}
    2a62:	00 80 fa    	ulnk      
    2a64:	32 00 f9    	pop       0x32
    2a66:	4f 03 be    	mov.d     [--w15], w6
    2a68:	4f 02 be    	mov.d     [--w15], w4
    2a6a:	4f 01 be    	mov.d     [--w15], w2
    2a6c:	4f 00 be    	mov.d     [--w15], w0
    2a6e:	36 00 f9    	pop       0x36
    2a70:	00 40 06    	retfie    

00002a72 <__T2Interrupt>:

void __attribute__((interrupt, auto_psv)) _T2Interrupt(void) {
    2a72:	36 00 f8    	push      0x36
    2a74:	80 9f be    	mov.d     w0, [w15++]
    2a76:	82 9f be    	mov.d     w2, [w15++]
    2a78:	84 9f be    	mov.d     w4, [w15++]
    2a7a:	86 9f be    	mov.d     w6, [w15++]
    2a7c:	32 00 f8    	push      0x32
    2a7e:	00 20 20    	mov.w     #0x200, w0
    2a80:	90 01 88    	mov.w     w0, 0x32
    2a82:	00 00 fa    	lnk       #0x0
    timer_serviceInterrupt(&timer2);
    2a84:	e0 ae 20    	mov.w     #0xaee, w0
    2a86:	b9 ff 07    	rcall     0x29fa <_timer_serviceInterrupt>
}
    2a88:	00 80 fa    	ulnk      
    2a8a:	32 00 f9    	pop       0x32
    2a8c:	4f 03 be    	mov.d     [--w15], w6
    2a8e:	4f 02 be    	mov.d     [--w15], w4
    2a90:	4f 01 be    	mov.d     [--w15], w2
    2a92:	4f 00 be    	mov.d     [--w15], w0
    2a94:	36 00 f9    	pop       0x36
    2a96:	00 40 06    	retfie    

00002a98 <__T3Interrupt>:

void __attribute__((interrupt, auto_psv)) _T3Interrupt(void) {
    2a98:	36 00 f8    	push      0x36
    2a9a:	80 9f be    	mov.d     w0, [w15++]
    2a9c:	82 9f be    	mov.d     w2, [w15++]
    2a9e:	84 9f be    	mov.d     w4, [w15++]
    2aa0:	86 9f be    	mov.d     w6, [w15++]
    2aa2:	32 00 f8    	push      0x32
    2aa4:	00 20 20    	mov.w     #0x200, w0
    2aa6:	90 01 88    	mov.w     w0, 0x32
    2aa8:	00 00 fa    	lnk       #0x0
    timer_serviceInterrupt(&timer3);
    2aaa:	40 b0 20    	mov.w     #0xb04, w0
    2aac:	a6 ff 07    	rcall     0x29fa <_timer_serviceInterrupt>
}
    2aae:	00 80 fa    	ulnk      
    2ab0:	32 00 f9    	pop       0x32
    2ab2:	4f 03 be    	mov.d     [--w15], w6
    2ab4:	4f 02 be    	mov.d     [--w15], w4
    2ab6:	4f 01 be    	mov.d     [--w15], w2
    2ab8:	4f 00 be    	mov.d     [--w15], w0
    2aba:	36 00 f9    	pop       0x36
    2abc:	00 40 06    	retfie    

00002abe <__T4Interrupt>:

void __attribute__((interrupt, auto_psv)) _T4Interrupt(void) {
    2abe:	36 00 f8    	push      0x36
    2ac0:	80 9f be    	mov.d     w0, [w15++]
    2ac2:	82 9f be    	mov.d     w2, [w15++]
    2ac4:	84 9f be    	mov.d     w4, [w15++]
    2ac6:	86 9f be    	mov.d     w6, [w15++]
    2ac8:	32 00 f8    	push      0x32
    2aca:	00 20 20    	mov.w     #0x200, w0
    2acc:	90 01 88    	mov.w     w0, 0x32
    2ace:	00 00 fa    	lnk       #0x0
    timer_serviceInterrupt(&timer4);
    2ad0:	a0 b1 20    	mov.w     #0xb1a, w0
    2ad2:	93 ff 07    	rcall     0x29fa <_timer_serviceInterrupt>
}
    2ad4:	00 80 fa    	ulnk      
    2ad6:	32 00 f9    	pop       0x32
    2ad8:	4f 03 be    	mov.d     [--w15], w6
    2ada:	4f 02 be    	mov.d     [--w15], w4
    2adc:	4f 01 be    	mov.d     [--w15], w2
    2ade:	4f 00 be    	mov.d     [--w15], w0
    2ae0:	36 00 f9    	pop       0x36
    2ae2:	00 40 06    	retfie    

00002ae4 <__T5Interrupt>:

void __attribute__((interrupt, auto_psv)) _T5Interrupt(void) {
    2ae4:	36 00 f8    	push      0x36
    2ae6:	80 9f be    	mov.d     w0, [w15++]
    2ae8:	82 9f be    	mov.d     w2, [w15++]
    2aea:	84 9f be    	mov.d     w4, [w15++]
    2aec:	86 9f be    	mov.d     w6, [w15++]
    2aee:	32 00 f8    	push      0x32
    2af0:	00 20 20    	mov.w     #0x200, w0
    2af2:	90 01 88    	mov.w     w0, 0x32
    2af4:	00 00 fa    	lnk       #0x0
    timer_serviceInterrupt(&timer5);
    2af6:	00 b3 20    	mov.w     #0xb30, w0
    2af8:	80 ff 07    	rcall     0x29fa <_timer_serviceInterrupt>
}
    2afa:	00 80 fa    	ulnk      
    2afc:	32 00 f9    	pop       0x32
    2afe:	4f 03 be    	mov.d     [--w15], w6
    2b00:	4f 02 be    	mov.d     [--w15], w4
    2b02:	4f 01 be    	mov.d     [--w15], w2
    2b04:	4f 00 be    	mov.d     [--w15], w0
    2b06:	36 00 f9    	pop       0x36
    2b08:	00 40 06    	retfie    

00002b0a <_init_timer>:

void init_timer(void) {
    2b0a:	00 00 fa    	lnk       #0x0
    timer_init(&timer1, (uint16_t *)&T1CON, (uint16_t *)&PR1, (uint16_t *)&TMR1, 
    2b0c:	b4 00 20    	mov.w     #0xb, w4
    2b0e:	84 1f 78    	mov.w     w4, [w15++]
    2b10:	47 00 20    	mov.w     #0x4, w7
    2b12:	36 c0 b3    	mov.b     #0x3, w6
    2b14:	45 09 20    	mov.w     #0x94, w5
    2b16:	44 08 20    	mov.w     #0x84, w4
    2b18:	03 10 20    	mov.w     #0x100, w3
    2b1a:	22 10 20    	mov.w     #0x102, w2
    2b1c:	41 10 20    	mov.w     #0x104, w1
    2b1e:	80 ad 20    	mov.w     #0xad8, w0
    2b20:	33 00 07    	rcall     0x2b88 <_timer_init>
    2b22:	8f 87 e9    	dec2.w    w15, w15
               (uint16_t *)&IFS0, (uint16_t *)&IEC0, 3, 4, 11);
    timer_init(&timer2, (uint16_t *)&T2CON, (uint16_t *)&PR2, (uint16_t *)&TMR2, 
    2b24:	c4 00 20    	mov.w     #0xc, w4
    2b26:	84 1f 78    	mov.w     w4, [w15++]
    2b28:	80 03 eb    	clr.w     w7
    2b2a:	76 c0 b3    	mov.b     #0x7, w6
    2b2c:	45 09 20    	mov.w     #0x94, w5
    2b2e:	44 08 20    	mov.w     #0x84, w4
    2b30:	63 10 20    	mov.w     #0x106, w3
    2b32:	c2 10 20    	mov.w     #0x10c, w2
    2b34:	01 11 20    	mov.w     #0x110, w1
    2b36:	e0 ae 20    	mov.w     #0xaee, w0
    2b38:	27 00 07    	rcall     0x2b88 <_timer_init>
    2b3a:	8f 87 e9    	dec2.w    w15, w15
               (uint16_t *)&IFS0, (uint16_t *)&IEC0, 7, 0, 12);
    timer_init(&timer3, (uint16_t *)&T3CON, (uint16_t *)&PR3, (uint16_t *)&TMR3, 
    2b3c:	d4 00 20    	mov.w     #0xd, w4
    2b3e:	84 1f 78    	mov.w     w4, [w15++]
    2b40:	17 00 20    	mov.w     #0x1, w7
    2b42:	86 c0 b3    	mov.b     #0x8, w6
    2b44:	45 09 20    	mov.w     #0x94, w5
    2b46:	44 08 20    	mov.w     #0x84, w4
    2b48:	a3 10 20    	mov.w     #0x10a, w3
    2b4a:	e2 10 20    	mov.w     #0x10e, w2
    2b4c:	21 11 20    	mov.w     #0x112, w1
    2b4e:	40 b0 20    	mov.w     #0xb04, w0
    2b50:	1b 00 07    	rcall     0x2b88 <_timer_init>
    2b52:	8f 87 e9    	dec2.w    w15, w15
               (uint16_t *)&IFS0, (uint16_t *)&IEC0, 8, 1, 13);
    timer_init(&timer4, (uint16_t *)&T4CON, (uint16_t *)&PR4, (uint16_t *)&TMR4, 
    2b54:	e4 00 20    	mov.w     #0xe, w4
    2b56:	84 1f 78    	mov.w     w4, [w15++]
    2b58:	27 00 20    	mov.w     #0x2, w7
    2b5a:	b6 c0 b3    	mov.b     #0xb, w6
    2b5c:	65 09 20    	mov.w     #0x96, w5
    2b5e:	64 08 20    	mov.w     #0x86, w4
    2b60:	43 11 20    	mov.w     #0x114, w3
    2b62:	a2 11 20    	mov.w     #0x11a, w2
    2b64:	e1 11 20    	mov.w     #0x11e, w1
    2b66:	a0 b1 20    	mov.w     #0xb1a, w0
    2b68:	0f 00 07    	rcall     0x2b88 <_timer_init>
    2b6a:	8f 87 e9    	dec2.w    w15, w15
               (uint16_t *)&IFS1, (uint16_t *)&IEC1, 11, 2, 14);
    timer_init(&timer5, (uint16_t *)&T5CON, (uint16_t *)&PR5, (uint16_t *)&TMR5, 
    2b6c:	f4 00 20    	mov.w     #0xf, w4
    2b6e:	84 1f 78    	mov.w     w4, [w15++]
    2b70:	37 00 20    	mov.w     #0x3, w7
    2b72:	c6 c0 b3    	mov.b     #0xc, w6
    2b74:	65 09 20    	mov.w     #0x96, w5
    2b76:	64 08 20    	mov.w     #0x86, w4
    2b78:	83 11 20    	mov.w     #0x118, w3
    2b7a:	c2 11 20    	mov.w     #0x11c, w2
    2b7c:	01 12 20    	mov.w     #0x120, w1
    2b7e:	00 b3 20    	mov.w     #0xb30, w0
    2b80:	03 00 07    	rcall     0x2b88 <_timer_init>
    2b82:	8f 87 e9    	dec2.w    w15, w15
               (uint16_t *)&IFS1, (uint16_t *)&IEC1, 12, 3, 15);
}
    2b84:	00 80 fa    	ulnk      
    2b86:	00 00 06    	return    

00002b88 <_timer_init>:

void timer_init(_TIMER *self, uint16_t *TxCON, uint16_t *PRx, 
                uint16_t *TMRx, uint16_t *IFSy, uint16_t *IECy, 
                uint8_t flagbit, uint16_t octselnum, uint16_t ocsyncselnum) {
    2b88:	10 00 fa    	lnk       #0x10
    2b8a:	00 0f 78    	mov.w     w0, [w14]
    2b8c:	11 07 98    	mov.w     w1, [w14+2]
    2b8e:	22 07 98    	mov.w     w2, [w14+4]
    2b90:	33 07 98    	mov.w     w3, [w14+6]
    2b92:	44 07 98    	mov.w     w4, [w14+8]
    2b94:	55 07 98    	mov.w     w5, [w14+10]
    2b96:	46 4f 98    	mov.b     w6, [w14+12]
    2b98:	77 07 98    	mov.w     w7, [w14+14]
    self->TxCON = TxCON;
    2b9a:	1e 02 78    	mov.w     [w14], w4
    2b9c:	9e 02 90    	mov.w     [w14+2], w5
    2b9e:	05 0a 78    	mov.w     w5, [w4]
    self->PRx = PRx;
    2ba0:	1e 02 78    	mov.w     [w14], w4
    2ba2:	ae 02 90    	mov.w     [w14+4], w5
    2ba4:	15 02 98    	mov.w     w5, [w4+2]
    self->TMRx = TMRx;
    2ba6:	1e 02 78    	mov.w     [w14], w4
    2ba8:	be 02 90    	mov.w     [w14+6], w5
    2baa:	25 02 98    	mov.w     w5, [w4+4]
    self->IFSy = IFSy;
    2bac:	1e 02 78    	mov.w     [w14], w4
    2bae:	ce 02 90    	mov.w     [w14+8], w5
    2bb0:	35 02 98    	mov.w     w5, [w4+6]
    self->IECy = IECy;
    2bb2:	1e 02 78    	mov.w     [w14], w4
    2bb4:	de 02 90    	mov.w     [w14+10], w5
    2bb6:	45 02 98    	mov.w     w5, [w4+8]
    self->flagbit = flagbit;
    2bb8:	1e 02 78    	mov.w     [w14], w4
    2bba:	ce 4a 90    	mov.b     [w14+12], w5
    2bbc:	25 4a 98    	mov.b     w5, [w4+10]
    self->octselnum = octselnum;
    2bbe:	1e 02 78    	mov.w     [w14], w4
    2bc0:	fe 02 90    	mov.w     [w14+14], w5
    2bc2:	65 02 98    	mov.w     w5, [w4+12]
    self->ocsyncselnum = ocsyncselnum;
    2bc4:	1e 02 78    	mov.w     [w14], w4
    2bc6:	ce ba 97    	mov.w     [w14-8], w5
    2bc8:	75 02 98    	mov.w     w5, [w4+14]
    self->aftercount = 0;
    2bca:	1e 02 78    	mov.w     [w14], w4
    2bcc:	80 02 eb    	clr.w     w5
    2bce:	05 0a 98    	mov.w     w5, [w4+16]
    self->every = NULL;
    2bd0:	1e 02 78    	mov.w     [w14], w4
    2bd2:	80 02 eb    	clr.w     w5
    2bd4:	15 0a 98    	mov.w     w5, [w4+18]
    self->after = NULL;
    2bd6:	1e 02 78    	mov.w     [w14], w4
    2bd8:	80 02 eb    	clr.w     w5
    2bda:	25 0a 98    	mov.w     w5, [w4+20]
}
    2bdc:	00 80 fa    	ulnk      
    2bde:	00 00 06    	return    

00002be0 <_timer_setPeriod>:

void timer_setPeriod(_TIMER *self, float period) {
    2be0:	06 00 fa    	lnk       #0x6
    2be2:	88 1f 78    	mov.w     w8, [w15++]
    2be4:	00 0f 78    	mov.w     w0, [w14]
    2be6:	12 07 98    	mov.w     w2, [w14+2]
    2be8:	23 07 98    	mov.w     w3, [w14+4]
    if (period>(256.*65536.*TCY)) {
    2bea:	18 c0 b3    	mov.b     #0x1, w8
    2bec:	d2 7b 23    	mov.w     #0x37bd, w2
    2bee:	63 f8 23    	mov.w     #0x3f86, w3
    2bf0:	1e 00 90    	mov.w     [w14+2], w0
    2bf2:	ae 00 90    	mov.w     [w14+4], w1
    2bf4:	04 f3 07    	rcall     0x11fe <___gesf2>
    2bf6:	00 02 78    	mov.w     w0, w4
    2bf8:	e0 0f 52    	sub.w     w4, #0x0, [w15]
    2bfa:	01 00 3c    	bra       GT, 0x2bfe <.L14>
    2bfc:	00 44 eb    	clr.b     w8

00002bfe <.L14>:
    2bfe:	e0 4f 54    	sub.b     w8, #0x0, [w15]
    2c00:	78 00 3a    	bra       NZ, 0x2cf2 <.L23>
        return;
    } else if (period>(64.*65536.*TCY)) {
    2c02:	18 c0 b3    	mov.b     #0x1, w8
    2c04:	d2 7b 23    	mov.w     #0x37bd, w2
    2c06:	63 e8 23    	mov.w     #0x3e86, w3
    2c08:	1e 00 90    	mov.w     [w14+2], w0
    2c0a:	ae 00 90    	mov.w     [w14+4], w1
    2c0c:	f8 f2 07    	rcall     0x11fe <___gesf2>
    2c0e:	00 02 78    	mov.w     w0, w4
    2c10:	e0 0f 52    	sub.w     w4, #0x0, [w15]
    2c12:	01 00 3c    	bra       GT, 0x2c16 <.L17>
    2c14:	00 44 eb    	clr.b     w8

00002c16 <.L17>:
    2c16:	e0 4f 54    	sub.b     w8, #0x0, [w15]
    2c18:	15 00 32    	bra       Z, 0x2c44 <.L18>
        timer_stop(self);
    2c1a:	1e 00 78    	mov.w     [w14], w0
    2c1c:	e2 00 07    	rcall     0x2de2 <_timer_stop>
        poke(self->TxCON, 0x0030);
    2c1e:	1e 02 78    	mov.w     [w14], w4
    2c20:	14 02 78    	mov.w     [w4], w4
    2c22:	05 03 20    	mov.w     #0x30, w5
    2c24:	05 0a 78    	mov.w     w5, [w4]
        poke(self->PRx, (uint16_t)(period*(FCY/256.))-1);
    2c26:	1e 02 78    	mov.w     [w14], w4
    2c28:	14 04 90    	mov.w     [w4+2], w8
    2c2a:	02 40 22    	mov.w     #0x2400, w2
    2c2c:	43 77 24    	mov.w     #0x4774, w3
    2c2e:	1e 00 90    	mov.w     [w14+2], w0
    2c30:	ae 00 90    	mov.w     [w14+4], w1
    2c32:	e7 f2 07    	rcall     0x1202 <___mulsf3>
    2c34:	00 02 be    	mov.d     w0, w4
    2c36:	04 00 be    	mov.d     w4, w0
    2c38:	18 f3 07    	rcall     0x126a <___fixunssfsi>
    2c3a:	00 02 be    	mov.d     w0, w4
    2c3c:	04 02 78    	mov.w     w4, w4
    2c3e:	04 02 e9    	dec.w     w4, w4
    2c40:	04 0c 78    	mov.w     w4, [w8]
    2c42:	58 00 37    	bra       0x2cf4 <.L13>

00002c44 <.L18>:
    } else if (period>(8.*65536.*TCY)) {
    2c44:	18 c0 b3    	mov.b     #0x1, w8
    2c46:	d2 7b 23    	mov.w     #0x37bd, w2
    2c48:	63 d0 23    	mov.w     #0x3d06, w3
    2c4a:	1e 00 90    	mov.w     [w14+2], w0
    2c4c:	ae 00 90    	mov.w     [w14+4], w1
    2c4e:	d7 f2 07    	rcall     0x11fe <___gesf2>
    2c50:	00 02 78    	mov.w     w0, w4
    2c52:	e0 0f 52    	sub.w     w4, #0x0, [w15]
    2c54:	01 00 3c    	bra       GT, 0x2c58 <.L19>
    2c56:	00 44 eb    	clr.b     w8

00002c58 <.L19>:
    2c58:	e0 4f 54    	sub.b     w8, #0x0, [w15]
    2c5a:	15 00 32    	bra       Z, 0x2c86 <.L20>
        timer_stop(self);
    2c5c:	1e 00 78    	mov.w     [w14], w0
    2c5e:	c1 00 07    	rcall     0x2de2 <_timer_stop>
        poke(self->TxCON, 0x0020);
    2c60:	1e 02 78    	mov.w     [w14], w4
    2c62:	14 02 78    	mov.w     [w4], w4
    2c64:	05 02 20    	mov.w     #0x20, w5
    2c66:	05 0a 78    	mov.w     w5, [w4]
        poke(self->PRx, (uint16_t)(period*(FCY/64.))-1);
    2c68:	1e 02 78    	mov.w     [w14], w4
    2c6a:	14 04 90    	mov.w     [w4+2], w8
    2c6c:	02 40 22    	mov.w     #0x2400, w2
    2c6e:	43 87 24    	mov.w     #0x4874, w3
    2c70:	1e 00 90    	mov.w     [w14+2], w0
    2c72:	ae 00 90    	mov.w     [w14+4], w1
    2c74:	c6 f2 07    	rcall     0x1202 <___mulsf3>
    2c76:	00 02 be    	mov.d     w0, w4
    2c78:	04 00 be    	mov.d     w4, w0
    2c7a:	f7 f2 07    	rcall     0x126a <___fixunssfsi>
    2c7c:	00 02 be    	mov.d     w0, w4
    2c7e:	04 02 78    	mov.w     w4, w4
    2c80:	04 02 e9    	dec.w     w4, w4
    2c82:	04 0c 78    	mov.w     w4, [w8]
    2c84:	37 00 37    	bra       0x2cf4 <.L13>

00002c86 <.L20>:
    } else if (period>(65536.*TCY)) {
    2c86:	18 c0 b3    	mov.b     #0x1, w8
    2c88:	d2 7b 23    	mov.w     #0x37bd, w2
    2c8a:	63 b8 23    	mov.w     #0x3b86, w3
    2c8c:	1e 00 90    	mov.w     [w14+2], w0
    2c8e:	ae 00 90    	mov.w     [w14+4], w1
    2c90:	b6 f2 07    	rcall     0x11fe <___gesf2>
    2c92:	00 02 78    	mov.w     w0, w4
    2c94:	e0 0f 52    	sub.w     w4, #0x0, [w15]
    2c96:	01 00 3c    	bra       GT, 0x2c9a <.L21>
    2c98:	00 44 eb    	clr.b     w8

00002c9a <.L21>:
    2c9a:	e0 4f 54    	sub.b     w8, #0x0, [w15]
    2c9c:	15 00 32    	bra       Z, 0x2cc8 <.L22>
        timer_stop(self);
    2c9e:	1e 00 78    	mov.w     [w14], w0
    2ca0:	a0 00 07    	rcall     0x2de2 <_timer_stop>
        poke(self->TxCON, 0x0010);
    2ca2:	1e 02 78    	mov.w     [w14], w4
    2ca4:	14 02 78    	mov.w     [w4], w4
    2ca6:	05 01 20    	mov.w     #0x10, w5
    2ca8:	05 0a 78    	mov.w     w5, [w4]
        poke(self->PRx, (uint16_t)(period*(FCY/8.))-1);
    2caa:	1e 02 78    	mov.w     [w14], w4
    2cac:	14 04 90    	mov.w     [w4+2], w8
    2cae:	02 40 22    	mov.w     #0x2400, w2
    2cb0:	43 9f 24    	mov.w     #0x49f4, w3
    2cb2:	1e 00 90    	mov.w     [w14+2], w0
    2cb4:	ae 00 90    	mov.w     [w14+4], w1
    2cb6:	a5 f2 07    	rcall     0x1202 <___mulsf3>
    2cb8:	00 02 be    	mov.d     w0, w4
    2cba:	04 00 be    	mov.d     w4, w0
    2cbc:	d6 f2 07    	rcall     0x126a <___fixunssfsi>
    2cbe:	00 02 be    	mov.d     w0, w4
    2cc0:	04 02 78    	mov.w     w4, w4
    2cc2:	04 02 e9    	dec.w     w4, w4
    2cc4:	04 0c 78    	mov.w     w4, [w8]
    2cc6:	16 00 37    	bra       0x2cf4 <.L13>

00002cc8 <.L22>:
    } else {
        timer_stop(self);
    2cc8:	1e 00 78    	mov.w     [w14], w0
    2cca:	8b 00 07    	rcall     0x2de2 <_timer_stop>
        poke(self->TxCON, 0x0000);
    2ccc:	1e 02 78    	mov.w     [w14], w4
    2cce:	14 02 78    	mov.w     [w4], w4
    2cd0:	80 02 eb    	clr.w     w5
    2cd2:	05 0a 78    	mov.w     w5, [w4]
        poke(self->PRx, (uint16_t)(period*FCY)-1);
    2cd4:	1e 02 78    	mov.w     [w14], w4
    2cd6:	14 04 90    	mov.w     [w4+2], w8
    2cd8:	02 40 22    	mov.w     #0x2400, w2
    2cda:	43 b7 24    	mov.w     #0x4b74, w3
    2cdc:	1e 00 90    	mov.w     [w14+2], w0
    2cde:	ae 00 90    	mov.w     [w14+4], w1
    2ce0:	90 f2 07    	rcall     0x1202 <___mulsf3>
    2ce2:	00 02 be    	mov.d     w0, w4
    2ce4:	04 00 be    	mov.d     w4, w0
    2ce6:	c1 f2 07    	rcall     0x126a <___fixunssfsi>
    2ce8:	00 02 be    	mov.d     w0, w4
    2cea:	04 02 78    	mov.w     w4, w4
    2cec:	04 02 e9    	dec.w     w4, w4
    2cee:	04 0c 78    	mov.w     w4, [w8]
    2cf0:	01 00 37    	bra       0x2cf4 <.L13>

00002cf2 <.L23>:
    2cf2:	00 00 00    	nop       

00002cf4 <.L13>:
    }
}
    2cf4:	4f 04 78    	mov.w     [--w15], w8
    2cf6:	00 80 fa    	ulnk      
    2cf8:	00 00 06    	return    

00002cfa <_timer_period>:

float timer_period(_TIMER *self) {
    2cfa:	04 00 fa    	lnk       #0x4
    2cfc:	88 9f be    	mov.d     w8, [w15++]
    2cfe:	10 07 98    	mov.w     w0, [w14+2]
    uint16_t prescalar = (peek(self->TxCON)&0x0030)>>4;
    2d00:	1e 02 90    	mov.w     [w14+2], w4
    2d02:	14 02 78    	mov.w     [w4], w4
    2d04:	94 02 78    	mov.w     [w4], w5
    2d06:	04 03 20    	mov.w     #0x30, w4
    2d08:	04 82 62    	and.w     w5, w4, w4
    2d0a:	44 22 de    	lsr.w     w4, #0x4, w4
    2d0c:	04 0f 78    	mov.w     w4, [w14]

    return timer_multipliers[prescalar]*((float)peek(self->PRx)+1.);
    2d0e:	1e 02 78    	mov.w     [w14], w4
    2d10:	c2 22 dd    	sl.w      w4, #0x2, w5
    2d12:	e4 b9 20    	mov.w     #0xb9e, w4
    2d14:	04 82 42    	add.w     w5, w4, w4
    2d16:	14 04 be    	mov.d     [w4], w8
    2d18:	1e 02 90    	mov.w     [w14+2], w4
    2d1a:	14 02 90    	mov.w     [w4+2], w4
    2d1c:	14 02 78    	mov.w     [w4], w4
    2d1e:	05 00 20    	mov.w     #0x0, w5
    2d20:	04 00 be    	mov.d     w4, w0
    2d22:	be f2 07    	rcall     0x12a0 <___floatunsisf>
    2d24:	00 02 be    	mov.d     w0, w4
    2d26:	02 00 20    	mov.w     #0x0, w2
    2d28:	03 f8 23    	mov.w     #0x3f80, w3
    2d2a:	04 00 be    	mov.d     w4, w0
    2d2c:	bc f2 07    	rcall     0x12a6 <___addsf3>
    2d2e:	00 02 be    	mov.d     w0, w4
    2d30:	04 01 be    	mov.d     w4, w2
    2d32:	08 00 be    	mov.d     w8, w0
    2d34:	66 f2 07    	rcall     0x1202 <___mulsf3>
    2d36:	00 02 be    	mov.d     w0, w4
}
    2d38:	04 00 be    	mov.d     w4, w0
    2d3a:	4f 04 be    	mov.d     [--w15], w8
    2d3c:	00 80 fa    	ulnk      
    2d3e:	00 00 06    	return    

00002d40 <_timer_setFreq>:

void timer_setFreq(_TIMER *self, float freq) {
    2d40:	06 00 fa    	lnk       #0x6
    2d42:	00 0f 78    	mov.w     w0, [w14]
    2d44:	12 07 98    	mov.w     w2, [w14+2]
    2d46:	23 07 98    	mov.w     w3, [w14+4]
    timer_setPeriod(self, 1./freq);
    2d48:	1e 01 90    	mov.w     [w14+2], w2
    2d4a:	ae 01 90    	mov.w     [w14+4], w3
    2d4c:	00 00 20    	mov.w     #0x0, w0
    2d4e:	01 f8 23    	mov.w     #0x3f80, w1
    2d50:	07 f3 07    	rcall     0x1360 <___divsf3>
    2d52:	00 02 be    	mov.d     w0, w4
    2d54:	04 01 be    	mov.d     w4, w2
    2d56:	1e 00 78    	mov.w     [w14], w0
    2d58:	43 ff 07    	rcall     0x2be0 <_timer_setPeriod>
}
    2d5a:	00 80 fa    	ulnk      
    2d5c:	00 00 06    	return    

00002d5e <_timer_freq>:

float timer_freq(_TIMER *self) {
    2d5e:	02 00 fa    	lnk       #0x2
    2d60:	00 0f 78    	mov.w     w0, [w14]
    return 1./timer_period(self);
    2d62:	1e 00 78    	mov.w     [w14], w0
    2d64:	ca ff 07    	rcall     0x2cfa <_timer_period>
    2d66:	00 02 be    	mov.d     w0, w4
    2d68:	04 01 be    	mov.d     w4, w2
    2d6a:	00 00 20    	mov.w     #0x0, w0
    2d6c:	01 f8 23    	mov.w     #0x3f80, w1
    2d6e:	f8 f2 07    	rcall     0x1360 <___divsf3>
    2d70:	00 02 be    	mov.d     w0, w4
}
    2d72:	04 00 be    	mov.d     w4, w0
    2d74:	00 80 fa    	ulnk      
    2d76:	00 00 06    	return    

00002d78 <_timer_time>:

float timer_time(_TIMER *self) {
    2d78:	04 00 fa    	lnk       #0x4
    2d7a:	88 9f be    	mov.d     w8, [w15++]
    2d7c:	10 07 98    	mov.w     w0, [w14+2]
    uint16_t prescalar = (peek(self->TxCON)&0x0030)>>4;
    2d7e:	1e 02 90    	mov.w     [w14+2], w4
    2d80:	14 02 78    	mov.w     [w4], w4
    2d82:	94 02 78    	mov.w     [w4], w5
    2d84:	04 03 20    	mov.w     #0x30, w4
    2d86:	04 82 62    	and.w     w5, w4, w4
    2d88:	44 22 de    	lsr.w     w4, #0x4, w4
    2d8a:	04 0f 78    	mov.w     w4, [w14]

    return timer_multipliers[prescalar]*((float)peek(self->PRx)+1.);
    2d8c:	1e 02 78    	mov.w     [w14], w4
    2d8e:	c2 22 dd    	sl.w      w4, #0x2, w5
    2d90:	e4 b9 20    	mov.w     #0xb9e, w4
    2d92:	04 82 42    	add.w     w5, w4, w4
    2d94:	14 04 be    	mov.d     [w4], w8
    2d96:	1e 02 90    	mov.w     [w14+2], w4
    2d98:	14 02 90    	mov.w     [w4+2], w4
    2d9a:	14 02 78    	mov.w     [w4], w4
    2d9c:	05 00 20    	mov.w     #0x0, w5
    2d9e:	04 00 be    	mov.d     w4, w0
    2da0:	7f f2 07    	rcall     0x12a0 <___floatunsisf>
    2da2:	00 02 be    	mov.d     w0, w4
    2da4:	02 00 20    	mov.w     #0x0, w2
    2da6:	03 f8 23    	mov.w     #0x3f80, w3
    2da8:	04 00 be    	mov.d     w4, w0
    2daa:	7d f2 07    	rcall     0x12a6 <___addsf3>
    2dac:	00 02 be    	mov.d     w0, w4
    2dae:	04 01 be    	mov.d     w4, w2
    2db0:	08 00 be    	mov.d     w8, w0
    2db2:	27 f2 07    	rcall     0x1202 <___mulsf3>
    2db4:	00 02 be    	mov.d     w0, w4
}
    2db6:	04 00 be    	mov.d     w4, w0
    2db8:	4f 04 be    	mov.d     [--w15], w8
    2dba:	00 80 fa    	ulnk      
    2dbc:	00 00 06    	return    

00002dbe <_timer_start>:

void timer_start(_TIMER *self) {
    2dbe:	02 00 fa    	lnk       #0x2
    2dc0:	00 0f 78    	mov.w     w0, [w14]
    timer_lower(self);
    2dc2:	1e 00 78    	mov.w     [w14], w0
    2dc4:	2c 00 07    	rcall     0x2e1e <_timer_lower>
    poke(self->TMRx, 0);
    2dc6:	1e 02 78    	mov.w     [w14], w4
    2dc8:	24 02 90    	mov.w     [w4+4], w4
    2dca:	80 02 eb    	clr.w     w5
    2dcc:	05 0a 78    	mov.w     w5, [w4]
    bitset(self->TxCON, 15);
    2dce:	1e 02 78    	mov.w     [w14], w4
    2dd0:	14 02 78    	mov.w     [w4], w4
    2dd2:	9e 02 78    	mov.w     [w14], w5
    2dd4:	95 02 78    	mov.w     [w5], w5
    2dd6:	15 03 78    	mov.w     [w5], w6
    2dd8:	05 00 28    	mov.w     #0x8000, w5
    2dda:	86 82 72    	ior.w     w5, w6, w5
    2ddc:	05 0a 78    	mov.w     w5, [w4]
}
    2dde:	00 80 fa    	ulnk      
    2de0:	00 00 06    	return    

00002de2 <_timer_stop>:

void timer_stop(_TIMER *self) {
    2de2:	02 00 fa    	lnk       #0x2
    2de4:	00 0f 78    	mov.w     w0, [w14]
    bitclear(self->TxCON, 15);
    2de6:	1e 02 78    	mov.w     [w14], w4
    2de8:	14 02 78    	mov.w     [w4], w4
    2dea:	9e 02 78    	mov.w     [w14], w5
    2dec:	95 02 78    	mov.w     [w5], w5
    2dee:	15 03 78    	mov.w     [w5], w6
    2df0:	f5 ff 27    	mov.w     #0x7fff, w5
    2df2:	85 02 63    	and.w     w6, w5, w5
    2df4:	05 0a 78    	mov.w     w5, [w4]
}
    2df6:	00 80 fa    	ulnk      
    2df8:	00 00 06    	return    

00002dfa <_timer_flag>:

uint16_t timer_flag(_TIMER *self) {
    2dfa:	02 00 fa    	lnk       #0x2
    2dfc:	00 0f 78    	mov.w     w0, [w14]
    return bitread(self->IFSy, self->flagbit);
    2dfe:	1e 02 78    	mov.w     [w14], w4
    2e00:	34 02 90    	mov.w     [w4+6], w4
    2e02:	94 02 78    	mov.w     [w4], w5
    2e04:	1e 02 78    	mov.w     [w14], w4
    2e06:	24 4a 90    	mov.b     [w4+10], w4
    2e08:	04 82 fb    	ze        w4, w4
    2e0a:	16 00 20    	mov.w     #0x1, w6
    2e0c:	04 32 dd    	sl.w      w6, w4, w4
    2e0e:	04 82 62    	and.w     w5, w4, w4
    2e10:	04 f0 a7    	btsc.w    w4, #0xf
    2e12:	04 02 ea    	neg.w     w4, w4
    2e14:	04 02 ea    	neg.w     w4, w4
    2e16:	4f 22 de    	lsr.w     w4, #0xf, w4
}
    2e18:	04 00 78    	mov.w     w4, w0
    2e1a:	00 80 fa    	ulnk      
    2e1c:	00 00 06    	return    

00002e1e <_timer_lower>:

void timer_lower(_TIMER *self) {
    2e1e:	02 00 fa    	lnk       #0x2
    2e20:	00 0f 78    	mov.w     w0, [w14]
    bitclear(self->IFSy, self->flagbit);
    2e22:	1e 02 78    	mov.w     [w14], w4
    2e24:	34 02 90    	mov.w     [w4+6], w4
    2e26:	9e 02 78    	mov.w     [w14], w5
    2e28:	b5 02 90    	mov.w     [w5+6], w5
    2e2a:	15 03 78    	mov.w     [w5], w6
    2e2c:	9e 02 78    	mov.w     [w14], w5
    2e2e:	a5 4a 90    	mov.b     [w5+10], w5
    2e30:	85 82 fb    	ze        w5, w5
    2e32:	17 00 20    	mov.w     #0x1, w7
    2e34:	85 3a dd    	sl.w      w7, w5, w5
    2e36:	85 82 ea    	com.w     w5, w5
    2e38:	85 02 63    	and.w     w6, w5, w5
    2e3a:	05 0a 78    	mov.w     w5, [w4]
}
    2e3c:	00 80 fa    	ulnk      
    2e3e:	00 00 06    	return    

00002e40 <_timer_read>:

uint16_t timer_read(_TIMER *self) {
    2e40:	02 00 fa    	lnk       #0x2
    2e42:	00 0f 78    	mov.w     w0, [w14]
    return peek(self->TMRx);
    2e44:	1e 02 78    	mov.w     [w14], w4
    2e46:	24 02 90    	mov.w     [w4+4], w4
    2e48:	14 02 78    	mov.w     [w4], w4
}
    2e4a:	04 00 78    	mov.w     w4, w0
    2e4c:	00 80 fa    	ulnk      
    2e4e:	00 00 06    	return    

00002e50 <_timer_enableInterrupt>:

void timer_enableInterrupt(_TIMER *self) {
    2e50:	02 00 fa    	lnk       #0x2
    2e52:	00 0f 78    	mov.w     w0, [w14]
    bitset(self->IECy, self->flagbit);
    2e54:	1e 02 78    	mov.w     [w14], w4
    2e56:	44 02 90    	mov.w     [w4+8], w4
    2e58:	9e 02 78    	mov.w     [w14], w5
    2e5a:	c5 02 90    	mov.w     [w5+8], w5
    2e5c:	15 03 78    	mov.w     [w5], w6
    2e5e:	9e 02 78    	mov.w     [w14], w5
    2e60:	a5 4a 90    	mov.b     [w5+10], w5
    2e62:	85 82 fb    	ze        w5, w5
    2e64:	17 00 20    	mov.w     #0x1, w7
    2e66:	85 3a dd    	sl.w      w7, w5, w5
    2e68:	86 82 72    	ior.w     w5, w6, w5
    2e6a:	05 0a 78    	mov.w     w5, [w4]
}
    2e6c:	00 80 fa    	ulnk      
    2e6e:	00 00 06    	return    

00002e70 <_timer_disableInterrupt>:

void timer_disableInterrupt(_TIMER *self) {
    2e70:	02 00 fa    	lnk       #0x2
    2e72:	00 0f 78    	mov.w     w0, [w14]
    bitclear(self->IECy, self->flagbit);
    2e74:	1e 02 78    	mov.w     [w14], w4
    2e76:	44 02 90    	mov.w     [w4+8], w4
    2e78:	9e 02 78    	mov.w     [w14], w5
    2e7a:	c5 02 90    	mov.w     [w5+8], w5
    2e7c:	15 03 78    	mov.w     [w5], w6
    2e7e:	9e 02 78    	mov.w     [w14], w5
    2e80:	a5 4a 90    	mov.b     [w5+10], w5
    2e82:	85 82 fb    	ze        w5, w5
    2e84:	17 00 20    	mov.w     #0x1, w7
    2e86:	85 3a dd    	sl.w      w7, w5, w5
    2e88:	85 82 ea    	com.w     w5, w5
    2e8a:	85 02 63    	and.w     w6, w5, w5
    2e8c:	05 0a 78    	mov.w     w5, [w4]
}
    2e8e:	00 80 fa    	ulnk      
    2e90:	00 00 06    	return    

00002e92 <_timer_every>:

void timer_every(_TIMER *self, float interval, void (*callback)(_TIMER *self)) {
    2e92:	08 00 fa    	lnk       #0x8
    2e94:	00 0f 78    	mov.w     w0, [w14]
    2e96:	12 07 98    	mov.w     w2, [w14+2]
    2e98:	23 07 98    	mov.w     w3, [w14+4]
    2e9a:	31 07 98    	mov.w     w1, [w14+6]
    timer_disableInterrupt(self);
    2e9c:	1e 00 78    	mov.w     [w14], w0
    2e9e:	e8 ff 07    	rcall     0x2e70 <_timer_disableInterrupt>
    timer_setPeriod(self, interval);
    2ea0:	1e 01 90    	mov.w     [w14+2], w2
    2ea2:	ae 01 90    	mov.w     [w14+4], w3
    2ea4:	1e 00 78    	mov.w     [w14], w0
    2ea6:	9c fe 07    	rcall     0x2be0 <_timer_setPeriod>
    self->aftercount = 0;
    2ea8:	1e 02 78    	mov.w     [w14], w4
    2eaa:	80 02 eb    	clr.w     w5
    2eac:	05 0a 98    	mov.w     w5, [w4+16]
    self->every = callback;
    2eae:	1e 02 78    	mov.w     [w14], w4
    2eb0:	be 02 90    	mov.w     [w14+6], w5
    2eb2:	15 0a 98    	mov.w     w5, [w4+18]
    self->after = NULL;
    2eb4:	1e 02 78    	mov.w     [w14], w4
    2eb6:	80 02 eb    	clr.w     w5
    2eb8:	25 0a 98    	mov.w     w5, [w4+20]
    timer_enableInterrupt(self);
    2eba:	1e 00 78    	mov.w     [w14], w0
    2ebc:	c9 ff 07    	rcall     0x2e50 <_timer_enableInterrupt>
    timer_start(self);
    2ebe:	1e 00 78    	mov.w     [w14], w0
    2ec0:	7e ff 07    	rcall     0x2dbe <_timer_start>
}
    2ec2:	00 80 fa    	ulnk      
    2ec4:	00 00 06    	return    

00002ec6 <_timer_after>:

void timer_after(_TIMER *self, float delay, uint16_t num_times, 
                 void (*callback)(_TIMER *self)) {
    2ec6:	0a 00 fa    	lnk       #0xa
    2ec8:	00 0f 78    	mov.w     w0, [w14]
    2eca:	12 07 98    	mov.w     w2, [w14+2]
    2ecc:	23 07 98    	mov.w     w3, [w14+4]
    2ece:	31 07 98    	mov.w     w1, [w14+6]
    2ed0:	44 07 98    	mov.w     w4, [w14+8]
    timer_disableInterrupt(self);
    2ed2:	1e 00 78    	mov.w     [w14], w0
    2ed4:	cd ff 07    	rcall     0x2e70 <_timer_disableInterrupt>
    timer_setPeriod(self, delay);
    2ed6:	1e 01 90    	mov.w     [w14+2], w2
    2ed8:	ae 01 90    	mov.w     [w14+4], w3
    2eda:	1e 00 78    	mov.w     [w14], w0
    2edc:	81 fe 07    	rcall     0x2be0 <_timer_setPeriod>
    self->aftercount = num_times;
    2ede:	1e 02 78    	mov.w     [w14], w4
    2ee0:	be 02 90    	mov.w     [w14+6], w5
    2ee2:	05 0a 98    	mov.w     w5, [w4+16]
    self->every = NULL;
    2ee4:	1e 02 78    	mov.w     [w14], w4
    2ee6:	80 02 eb    	clr.w     w5
    2ee8:	15 0a 98    	mov.w     w5, [w4+18]
    self->after = callback;
    2eea:	1e 02 78    	mov.w     [w14], w4
    2eec:	ce 02 90    	mov.w     [w14+8], w5
    2eee:	25 0a 98    	mov.w     w5, [w4+20]
    timer_enableInterrupt(self);
    2ef0:	1e 00 78    	mov.w     [w14], w0
    2ef2:	ae ff 07    	rcall     0x2e50 <_timer_enableInterrupt>
    timer_start(self);
    2ef4:	1e 00 78    	mov.w     [w14], w0
    2ef6:	63 ff 07    	rcall     0x2dbe <_timer_start>
}
    2ef8:	00 80 fa    	ulnk      
    2efa:	00 00 06    	return    

00002efc <_timer_cancel>:

void timer_cancel(_TIMER *self) {
    2efc:	02 00 fa    	lnk       #0x2
    2efe:	00 0f 78    	mov.w     w0, [w14]
    timer_disableInterrupt(self);
    2f00:	1e 00 78    	mov.w     [w14], w0
    2f02:	b6 ff 07    	rcall     0x2e70 <_timer_disableInterrupt>
    timer_lower(self);
    2f04:	1e 00 78    	mov.w     [w14], w0
    2f06:	8b ff 07    	rcall     0x2e1e <_timer_lower>
    timer_stop(self);
    2f08:	1e 00 78    	mov.w     [w14], w0
    2f0a:	6b ff 07    	rcall     0x2de2 <_timer_stop>
    self->aftercount = 0;
    2f0c:	1e 02 78    	mov.w     [w14], w4
    2f0e:	80 02 eb    	clr.w     w5
    2f10:	05 0a 98    	mov.w     w5, [w4+16]
    self->every = NULL;
    2f12:	1e 02 78    	mov.w     [w14], w4
    2f14:	80 02 eb    	clr.w     w5
    2f16:	15 0a 98    	mov.w     w5, [w4+18]
    self->after = NULL;
    2f18:	1e 02 78    	mov.w     [w14], w4
    2f1a:	80 02 eb    	clr.w     w5
    2f1c:	25 0a 98    	mov.w     w5, [w4+20]
}
    2f1e:	00 80 fa    	ulnk      
    2f20:	00 00 06    	return    

00002f22 <___digitalWrite>:
    2f22:	04 00 fa    	lnk       #0x4
    2f24:	00 0f 78    	mov.w     w0, [w14]
    2f26:	11 07 98    	mov.w     w1, [w14+2]
    2f28:	1e 02 90    	mov.w     [w14+2], w4
    2f2a:	e0 0f 52    	sub.w     w4, #0x0, [w15]
    2f2c:	0d 00 32    	bra       Z, 0x2f48 <.L2>
    2f2e:	1e 02 78    	mov.w     [w14], w4
    2f30:	14 02 78    	mov.w     [w4], w4
    2f32:	9e 02 78    	mov.w     [w14], w5
    2f34:	95 02 78    	mov.w     [w5], w5
    2f36:	15 03 78    	mov.w     [w5], w6
    2f38:	9e 02 78    	mov.w     [w14], w5
    2f3a:	e5 42 90    	mov.b     [w5+6], w5
    2f3c:	85 82 fb    	ze        w5, w5
    2f3e:	17 00 20    	mov.w     #0x1, w7
    2f40:	85 3a dd    	sl.w      w7, w5, w5
    2f42:	86 82 72    	ior.w     w5, w6, w5
    2f44:	05 0a 78    	mov.w     w5, [w4]
    2f46:	0d 00 37    	bra       0x2f62 <.L1>

00002f48 <.L2>:
    2f48:	1e 02 78    	mov.w     [w14], w4
    2f4a:	14 02 78    	mov.w     [w4], w4
    2f4c:	9e 02 78    	mov.w     [w14], w5
    2f4e:	95 02 78    	mov.w     [w5], w5
    2f50:	15 03 78    	mov.w     [w5], w6
    2f52:	9e 02 78    	mov.w     [w14], w5
    2f54:	e5 42 90    	mov.b     [w5+6], w5
    2f56:	85 82 fb    	ze        w5, w5
    2f58:	17 00 20    	mov.w     #0x1, w7
    2f5a:	85 3a dd    	sl.w      w7, w5, w5
    2f5c:	85 82 ea    	com.w     w5, w5
    2f5e:	85 02 63    	and.w     w6, w5, w5
    2f60:	05 0a 78    	mov.w     w5, [w4]

00002f62 <.L1>:
    2f62:	00 80 fa    	ulnk      
    2f64:	00 00 06    	return    

00002f66 <___digitalRead>:
    2f66:	02 00 fa    	lnk       #0x2
    2f68:	00 0f 78    	mov.w     w0, [w14]
    2f6a:	1e 02 78    	mov.w     [w14], w4
    2f6c:	14 02 78    	mov.w     [w4], w4
    2f6e:	94 02 78    	mov.w     [w4], w5
    2f70:	1e 02 78    	mov.w     [w14], w4
    2f72:	64 42 90    	mov.b     [w4+6], w4
    2f74:	04 82 fb    	ze        w4, w4
    2f76:	16 00 20    	mov.w     #0x1, w6
    2f78:	04 32 dd    	sl.w      w6, w4, w4
    2f7a:	04 82 62    	and.w     w5, w4, w4
    2f7c:	04 f0 a7    	btsc.w    w4, #0xf
    2f7e:	04 02 ea    	neg.w     w4, w4
    2f80:	04 02 ea    	neg.w     w4, w4
    2f82:	4f 22 de    	lsr.w     w4, #0xf, w4
    2f84:	04 00 78    	mov.w     w4, w0
    2f86:	00 80 fa    	ulnk      
    2f88:	00 00 06    	return    

00002f8a <___analogRead>:
    2f8a:	02 00 fa    	lnk       #0x2
    2f8c:	00 0f 78    	mov.w     w0, [w14]
    2f8e:	1e 02 78    	mov.w     [w14], w4
    2f90:	44 02 90    	mov.w     [w4+8], w4
    2f92:	44 19 88    	mov.w     w4, 0x328
    2f94:	20 23 a8    	bset.b    0x320, #0x1
    2f96:	00 00 00    	nop       

00002f98 <.L6>:
    2f98:	04 19 80    	mov.w     0x320, w4
    2f9a:	61 02 62    	and.w     w4, #0x1, w4
    2f9c:	e0 0f 52    	sub.w     w4, #0x0, [w15]
    2f9e:	fc ff 32    	bra       Z, 0x2f98 <.L6>
    2fa0:	04 18 80    	mov.w     0x300, w4
    2fa2:	04 00 78    	mov.w     w4, w0
    2fa4:	00 80 fa    	ulnk      
    2fa6:	00 00 06    	return    

00002fa8 <_init_pin>:
    2fa8:	02 00 fa    	lnk       #0x2
    2faa:	44 6d 20    	mov.w     #0x6d4, w4
    2fac:	84 1f 78    	mov.w     w4, [w15++]
    2fae:	47 01 20    	mov.w     #0x14, w7
    2fb0:	00 43 eb    	clr.b     w6
    2fb2:	80 82 eb    	setm.w    w5
    2fb4:	54 c0 b3    	mov.b     #0x5, w4
    2fb6:	80 01 eb    	clr.w     w3
    2fb8:	82 2d 20    	mov.w     #0x2d8, w2
    2fba:	a1 2d 20    	mov.w     #0x2da, w1
    2fbc:	00 80 20    	mov.w     #0x800, w0
    2fbe:	0c 01 07    	rcall     0x31d8 <_pin_init>
    2fc0:	8f 87 e9    	dec2.w    w15, w15
    2fc2:	84 6d 20    	mov.w     #0x6d8, w4
    2fc4:	84 1f 78    	mov.w     w4, [w15++]
    2fc6:	97 01 20    	mov.w     #0x19, w7
    2fc8:	86 c0 b3    	mov.b     #0x8, w6
    2fca:	80 82 eb    	setm.w    w5
    2fcc:	44 c0 b3    	mov.b     #0x4, w4
    2fce:	80 01 eb    	clr.w     w3
    2fd0:	82 2d 20    	mov.w     #0x2d8, w2
    2fd2:	a1 2d 20    	mov.w     #0x2da, w1
    2fd4:	60 81 20    	mov.w     #0x816, w0
    2fd6:	00 01 07    	rcall     0x31d8 <_pin_init>
    2fd8:	8f 87 e9    	dec2.w    w15, w15
    2fda:	a4 6c 20    	mov.w     #0x6ca, w4
    2fdc:	84 1f 78    	mov.w     w4, [w15++]
    2fde:	a7 00 20    	mov.w     #0xa, w7
    2fe0:	00 43 eb    	clr.b     w6
    2fe2:	80 82 eb    	setm.w    w5
    2fe4:	44 c0 b3    	mov.b     #0x4, w4
    2fe6:	80 01 eb    	clr.w     w3
    2fe8:	82 2e 20    	mov.w     #0x2e8, w2
    2fea:	a1 2e 20    	mov.w     #0x2ea, w1
    2fec:	c0 82 20    	mov.w     #0x82c, w0
    2fee:	f4 00 07    	rcall     0x31d8 <_pin_init>
    2ff0:	8f 87 e9    	dec2.w    w15, w15
    2ff2:	04 6d 20    	mov.w     #0x6d0, w4
    2ff4:	84 1f 78    	mov.w     w4, [w15++]
    2ff6:	17 01 20    	mov.w     #0x11, w7
    2ff8:	86 c0 b3    	mov.b     #0x8, w6
    2ffa:	80 82 eb    	setm.w    w5
    2ffc:	54 c0 b3    	mov.b     #0x5, w4
    2ffe:	80 01 eb    	clr.w     w3
    3000:	82 2e 20    	mov.w     #0x2e8, w2
    3002:	a1 2e 20    	mov.w     #0x2ea, w1
    3004:	20 84 20    	mov.w     #0x842, w0
    3006:	e8 00 07    	rcall     0x31d8 <_pin_init>
    3008:	8f 87 e9    	dec2.w    w15, w15
    300a:	c4 6d 20    	mov.w     #0x6dc, w4
    300c:	84 1f 78    	mov.w     w4, [w15++]
    300e:	d7 01 20    	mov.w     #0x1d, w7
    3010:	86 c0 b3    	mov.b     #0x8, w6
    3012:	f5 00 20    	mov.w     #0xf, w5
    3014:	f4 c0 b3    	mov.b     #0xf, w4
    3016:	23 4e 20    	mov.w     #0x4e2, w3
    3018:	82 2c 20    	mov.w     #0x2c8, w2
    301a:	a1 2c 20    	mov.w     #0x2ca, w1
    301c:	80 85 20    	mov.w     #0x858, w0
    301e:	dc 00 07    	rcall     0x31d8 <_pin_init>
    3020:	8f 87 e9    	dec2.w    w15, w15
    3022:	04 6d 20    	mov.w     #0x6d0, w4
    3024:	84 1f 78    	mov.w     w4, [w15++]
    3026:	07 01 20    	mov.w     #0x10, w7
    3028:	00 43 eb    	clr.b     w6
    302a:	80 82 eb    	setm.w    w5
    302c:	34 c0 b3    	mov.b     #0x3, w4
    302e:	80 01 eb    	clr.w     w3
    3030:	82 2e 20    	mov.w     #0x2e8, w2
    3032:	a1 2e 20    	mov.w     #0x2ea, w1
    3034:	e0 86 20    	mov.w     #0x86e, w0
    3036:	d0 00 07    	rcall     0x31d8 <_pin_init>
    3038:	8f 87 e9    	dec2.w    w15, w15
    303a:	24 6c 20    	mov.w     #0x6c2, w4
    303c:	84 1f 78    	mov.w     w4, [w15++]
    303e:	27 00 20    	mov.w     #0x2, w7
    3040:	00 43 eb    	clr.b     w6
    3042:	80 82 eb    	setm.w    w5
    3044:	84 c0 b3    	mov.b     #0x8, w4
    3046:	80 01 eb    	clr.w     w3
    3048:	82 2d 20    	mov.w     #0x2d8, w2
    304a:	a1 2d 20    	mov.w     #0x2da, w1
    304c:	40 88 20    	mov.w     #0x884, w0
    304e:	c4 00 07    	rcall     0x31d8 <_pin_init>
    3050:	8f 87 e9    	dec2.w    w15, w15
    3052:	c4 6c 20    	mov.w     #0x6cc, w4
    3054:	84 1f 78    	mov.w     w4, [w15++]
    3056:	c7 00 20    	mov.w     #0xc, w7
    3058:	00 43 eb    	clr.b     w6
    305a:	80 82 eb    	setm.w    w5
    305c:	b4 c0 b3    	mov.b     #0xb, w4
    305e:	80 01 eb    	clr.w     w3
    3060:	82 2d 20    	mov.w     #0x2d8, w2
    3062:	a1 2d 20    	mov.w     #0x2da, w1
    3064:	a0 89 20    	mov.w     #0x89a, w0
    3066:	b8 00 07    	rcall     0x31d8 <_pin_init>
    3068:	8f 87 e9    	dec2.w    w15, w15
    306a:	44 6c 20    	mov.w     #0x6c4, w4
    306c:	84 1f 78    	mov.w     w4, [w15++]
    306e:	47 00 20    	mov.w     #0x4, w7
    3070:	00 43 eb    	clr.b     w6
    3072:	80 82 eb    	setm.w    w5
    3074:	94 c0 b3    	mov.b     #0x9, w4
    3076:	80 01 eb    	clr.w     w3
    3078:	82 2d 20    	mov.w     #0x2d8, w2
    307a:	a1 2d 20    	mov.w     #0x2da, w1
    307c:	00 8b 20    	mov.w     #0x8b0, w0
    307e:	ac 00 07    	rcall     0x31d8 <_pin_init>
    3080:	8f 87 e9    	dec2.w    w15, w15
    3082:	24 6c 20    	mov.w     #0x6c2, w4
    3084:	84 1f 78    	mov.w     w4, [w15++]
    3086:	37 00 20    	mov.w     #0x3, w7
    3088:	86 c0 b3    	mov.b     #0x8, w6
    308a:	80 82 eb    	setm.w    w5
    308c:	a4 c0 b3    	mov.b     #0xa, w4
    308e:	80 01 eb    	clr.w     w3
    3090:	82 2d 20    	mov.w     #0x2d8, w2
    3092:	a1 2d 20    	mov.w     #0x2da, w1
    3094:	60 8c 20    	mov.w     #0x8c6, w0
    3096:	a0 00 07    	rcall     0x31d8 <_pin_init>
    3098:	8f 87 e9    	dec2.w    w15, w15
    309a:	a4 6c 20    	mov.w     #0x6ca, w4
    309c:	84 1f 78    	mov.w     w4, [w15++]
    309e:	b7 00 20    	mov.w     #0xb, w7
    30a0:	86 c0 b3    	mov.b     #0x8, w6
    30a2:	80 82 eb    	setm.w    w5
    30a4:	00 42 eb    	clr.b     w4
    30a6:	80 01 eb    	clr.w     w3
    30a8:	82 2d 20    	mov.w     #0x2d8, w2
    30aa:	a1 2d 20    	mov.w     #0x2da, w1
    30ac:	c0 8d 20    	mov.w     #0x8dc, w0
    30ae:	94 00 07    	rcall     0x31d8 <_pin_init>
    30b0:	8f 87 e9    	dec2.w    w15, w15
    30b2:	84 6d 20    	mov.w     #0x6d8, w4
    30b4:	84 1f 78    	mov.w     w4, [w15++]
    30b6:	87 01 20    	mov.w     #0x18, w7
    30b8:	00 43 eb    	clr.b     w6
    30ba:	80 82 eb    	setm.w    w5
    30bc:	14 c0 b3    	mov.b     #0x1, w4
    30be:	80 01 eb    	clr.w     w3
    30c0:	82 2d 20    	mov.w     #0x2d8, w2
    30c2:	a1 2d 20    	mov.w     #0x2da, w1
    30c4:	20 8f 20    	mov.w     #0x8f2, w0
    30c6:	88 00 07    	rcall     0x31d8 <_pin_init>
    30c8:	8f 87 e9    	dec2.w    w15, w15
    30ca:	64 6d 20    	mov.w     #0x6d6, w4
    30cc:	84 1f 78    	mov.w     w4, [w15++]
    30ce:	77 01 20    	mov.w     #0x17, w7
    30d0:	86 c0 b3    	mov.b     #0x8, w6
    30d2:	80 82 eb    	setm.w    w5
    30d4:	24 c0 b3    	mov.b     #0x2, w4
    30d6:	80 01 eb    	clr.w     w3
    30d8:	82 2d 20    	mov.w     #0x2d8, w2
    30da:	a1 2d 20    	mov.w     #0x2da, w1
    30dc:	80 90 20    	mov.w     #0x908, w0
    30de:	7c 00 07    	rcall     0x31d8 <_pin_init>
    30e0:	8f 87 e9    	dec2.w    w15, w15
    30e2:	64 6d 20    	mov.w     #0x6d6, w4
    30e4:	84 1f 78    	mov.w     w4, [w15++]
    30e6:	67 01 20    	mov.w     #0x16, w7
    30e8:	00 43 eb    	clr.b     w6
    30ea:	80 82 eb    	setm.w    w5
    30ec:	34 c0 b3    	mov.b     #0x3, w4
    30ee:	80 01 eb    	clr.w     w3
    30f0:	82 2d 20    	mov.w     #0x2d8, w2
    30f2:	a1 2d 20    	mov.w     #0x2da, w1
    30f4:	e0 91 20    	mov.w     #0x91e, w0
    30f6:	70 00 07    	rcall     0x31d8 <_pin_init>
    30f8:	8f 87 e9    	dec2.w    w15, w15
    30fa:	04 6c 20    	mov.w     #0x6c0, w4
    30fc:	84 1f 78    	mov.w     w4, [w15++]
    30fe:	80 03 eb    	clr.w     w7
    3100:	00 43 eb    	clr.b     w6
    3102:	80 02 eb    	clr.w     w5
    3104:	00 42 eb    	clr.b     w4
    3106:	23 4e 20    	mov.w     #0x4e2, w3
    3108:	82 2c 20    	mov.w     #0x2c8, w2
    310a:	a1 2c 20    	mov.w     #0x2ca, w1
    310c:	40 93 20    	mov.w     #0x934, w0
    310e:	64 00 07    	rcall     0x31d8 <_pin_init>
    3110:	8f 87 e9    	dec2.w    w15, w15
    3112:	04 6c 20    	mov.w     #0x6c0, w4
    3114:	84 1f 78    	mov.w     w4, [w15++]
    3116:	17 00 20    	mov.w     #0x1, w7
    3118:	86 c0 b3    	mov.b     #0x8, w6
    311a:	15 00 20    	mov.w     #0x1, w5
    311c:	14 c0 b3    	mov.b     #0x1, w4
    311e:	23 4e 20    	mov.w     #0x4e2, w3
    3120:	82 2c 20    	mov.w     #0x2c8, w2
    3122:	a1 2c 20    	mov.w     #0x2ca, w1
    3124:	a0 94 20    	mov.w     #0x94a, w0
    3126:	58 00 07    	rcall     0x31d8 <_pin_init>
    3128:	8f 87 e9    	dec2.w    w15, w15
    312a:	c4 6c 20    	mov.w     #0x6cc, w4
    312c:	84 1f 78    	mov.w     w4, [w15++]
    312e:	d7 00 20    	mov.w     #0xd, w7
    3130:	86 c0 b3    	mov.b     #0x8, w6
    3132:	25 00 20    	mov.w     #0x2, w5
    3134:	24 c0 b3    	mov.b     #0x2, w4
    3136:	23 4e 20    	mov.w     #0x4e2, w3
    3138:	82 2c 20    	mov.w     #0x2c8, w2
    313a:	a1 2c 20    	mov.w     #0x2ca, w1
    313c:	00 96 20    	mov.w     #0x960, w0
    313e:	4c 00 07    	rcall     0x31d8 <_pin_init>
    3140:	8f 87 e9    	dec2.w    w15, w15
    3142:	00 02 eb    	clr.w     w4
    3144:	84 1f 78    	mov.w     w4, [w15++]
    3146:	80 83 eb    	setm.w    w7
    3148:	00 43 eb    	clr.b     w6
    314a:	35 00 20    	mov.w     #0x3, w5
    314c:	34 c0 b3    	mov.b     #0x3, w4
    314e:	23 4e 20    	mov.w     #0x4e2, w3
    3150:	82 2c 20    	mov.w     #0x2c8, w2
    3152:	a1 2c 20    	mov.w     #0x2ca, w1
    3154:	60 97 20    	mov.w     #0x976, w0
    3156:	40 00 07    	rcall     0x31d8 <_pin_init>
    3158:	8f 87 e9    	dec2.w    w15, w15
    315a:	c4 6d 20    	mov.w     #0x6dc, w4
    315c:	84 1f 78    	mov.w     w4, [w15++]
    315e:	c7 01 20    	mov.w     #0x1c, w7
    3160:	00 43 eb    	clr.b     w6
    3162:	45 00 20    	mov.w     #0x4, w5
    3164:	44 c0 b3    	mov.b     #0x4, w4
    3166:	23 4e 20    	mov.w     #0x4e2, w3
    3168:	82 2c 20    	mov.w     #0x2c8, w2
    316a:	a1 2c 20    	mov.w     #0x2ca, w1
    316c:	c0 98 20    	mov.w     #0x98c, w0
    316e:	34 00 07    	rcall     0x31d8 <_pin_init>
    3170:	8f 87 e9    	dec2.w    w15, w15
    3172:	24 6d 20    	mov.w     #0x6d2, w4
    3174:	84 1f 78    	mov.w     w4, [w15++]
    3176:	27 01 20    	mov.w     #0x12, w7
    3178:	00 43 eb    	clr.b     w6
    317a:	55 00 20    	mov.w     #0x5, w5
    317c:	54 c0 b3    	mov.b     #0x5, w4
    317e:	23 4e 20    	mov.w     #0x4e2, w3
    3180:	82 2c 20    	mov.w     #0x2c8, w2
    3182:	a1 2c 20    	mov.w     #0x2ca, w1
    3184:	20 9a 20    	mov.w     #0x9a2, w0
    3186:	28 00 07    	rcall     0x31d8 <_pin_init>
    3188:	8f 87 e9    	dec2.w    w15, w15
    318a:	00 02 eb    	clr.w     w4
    318c:	04 0f 78    	mov.w     w4, [w14]
    318e:	08 00 37    	bra       0x31a0 <.L8>

00003190 <.L9>:
    3190:	1e 02 78    	mov.w     [w14], w4
    3192:	76 22 b9    	mul.su    w4, #0x16, w4
    3194:	84 02 78    	mov.w     w4, w5
    3196:	04 80 20    	mov.w     #0x800, w4
    3198:	04 82 42    	add.w     w5, w4, w4
    319a:	04 00 78    	mov.w     w4, w0
    319c:	49 00 07    	rcall     0x3230 <_pin_digitalIn>
    319e:	1e 0f e8    	inc.w     [w14], [w14]

000031a0 <.L8>:
    31a0:	1e 02 78    	mov.w     [w14], w4
    31a2:	ed 0f 52    	sub.w     w4, #0xd, [w15]
    31a4:	f5 ff 36    	bra       LEU, 0x3190 <.L9>
    31a6:	00 02 eb    	clr.w     w4
    31a8:	04 0f 78    	mov.w     w4, [w14]
    31aa:	08 00 37    	bra       0x31bc <.L10>

000031ac <.L11>:
    31ac:	1e 02 78    	mov.w     [w14], w4
    31ae:	76 22 b9    	mul.su    w4, #0x16, w4
    31b0:	84 02 78    	mov.w     w4, w5
    31b2:	44 93 20    	mov.w     #0x934, w4
    31b4:	04 82 42    	add.w     w5, w4, w4
    31b6:	04 00 78    	mov.w     w4, w0
    31b8:	97 00 07    	rcall     0x32e8 <_pin_analogIn>
    31ba:	1e 0f e8    	inc.w     [w14], [w14]

000031bc <.L10>:
    31bc:	1e 02 78    	mov.w     [w14], w4
    31be:	e5 0f 52    	sub.w     w4, #0x5, [w15]
    31c0:	f5 ff 36    	bra       LEU, 0x31ac <.L11>
    31c2:	04 2e 20    	mov.w     #0x2e0, w4
    31c4:	04 19 88    	mov.w     w4, 0x320
    31c6:	00 02 eb    	clr.w     w4
    31c8:	14 19 88    	mov.w     w4, 0x322
    31ca:	04 c4 20    	mov.w     #0xc40, w4
    31cc:	24 19 88    	mov.w     w4, 0x324
    31ce:	00 02 eb    	clr.w     w4
    31d0:	44 19 88    	mov.w     w4, 0x328
    31d2:	21 e3 a8    	bset.b    0x321, #0x7
    31d4:	00 80 fa    	ulnk      
    31d6:	00 00 06    	return    

000031d8 <_pin_init>:
    31d8:	10 00 fa    	lnk       #0x10
    31da:	00 0f 78    	mov.w     w0, [w14]
    31dc:	11 07 98    	mov.w     w1, [w14+2]
    31de:	22 07 98    	mov.w     w2, [w14+4]
    31e0:	33 07 98    	mov.w     w3, [w14+6]
    31e2:	04 4f 98    	mov.b     w4, [w14+8]
    31e4:	55 07 98    	mov.w     w5, [w14+10]
    31e6:	46 4f 98    	mov.b     w6, [w14+12]
    31e8:	77 07 98    	mov.w     w7, [w14+14]
    31ea:	1e 02 78    	mov.w     [w14], w4
    31ec:	9e 02 90    	mov.w     [w14+2], w5
    31ee:	05 0a 78    	mov.w     w5, [w4]
    31f0:	1e 02 78    	mov.w     [w14], w4
    31f2:	ae 02 90    	mov.w     [w14+4], w5
    31f4:	15 02 98    	mov.w     w5, [w4+2]
    31f6:	1e 02 78    	mov.w     [w14], w4
    31f8:	be 02 90    	mov.w     [w14+6], w5
    31fa:	25 02 98    	mov.w     w5, [w4+4]
    31fc:	1e 02 78    	mov.w     [w14], w4
    31fe:	8e 4a 90    	mov.b     [w14+8], w5
    3200:	65 42 98    	mov.b     w5, [w4+6]
    3202:	1e 02 78    	mov.w     [w14], w4
    3204:	de 02 90    	mov.w     [w14+10], w5
    3206:	45 02 98    	mov.w     w5, [w4+8]
    3208:	1e 02 78    	mov.w     [w14], w4
    320a:	ce 4a 90    	mov.b     [w14+12], w5
    320c:	25 4a 98    	mov.b     w5, [w4+10]
    320e:	fe 02 90    	mov.w     [w14+14], w5
    3210:	1e 02 78    	mov.w     [w14], w4
    3212:	65 02 98    	mov.w     w5, [w4+12]
    3214:	1e 02 78    	mov.w     [w14], w4
    3216:	ce ba 97    	mov.w     [w14-8], w5
    3218:	75 02 98    	mov.w     w5, [w4+14]
    321a:	1e 02 78    	mov.w     [w14], w4
    321c:	80 02 eb    	clr.w     w5
    321e:	05 0a 98    	mov.w     w5, [w4+16]
    3220:	1e 02 78    	mov.w     [w14], w4
    3222:	80 02 eb    	clr.w     w5
    3224:	15 0a 98    	mov.w     w5, [w4+18]
    3226:	1e 02 78    	mov.w     [w14], w4
    3228:	80 02 eb    	clr.w     w5
    322a:	25 0a 98    	mov.w     w5, [w4+20]
    322c:	00 80 fa    	ulnk      
    322e:	00 00 06    	return    

00003230 <_pin_digitalIn>:
    3230:	02 00 fa    	lnk       #0x2
    3232:	00 0f 78    	mov.w     w0, [w14]
    3234:	1e 02 78    	mov.w     [w14], w4
    3236:	24 02 90    	mov.w     [w4+4], w4
    3238:	e0 0f 52    	sub.w     w4, #0x0, [w15]
    323a:	0d 00 32    	bra       Z, 0x3256 <.L14>
    323c:	1e 02 78    	mov.w     [w14], w4
    323e:	24 02 90    	mov.w     [w4+4], w4
    3240:	9e 02 78    	mov.w     [w14], w5
    3242:	a5 02 90    	mov.w     [w5+4], w5
    3244:	15 03 78    	mov.w     [w5], w6
    3246:	9e 02 78    	mov.w     [w14], w5
    3248:	e5 42 90    	mov.b     [w5+6], w5
    324a:	85 82 fb    	ze        w5, w5
    324c:	17 00 20    	mov.w     #0x1, w7
    324e:	85 3a dd    	sl.w      w7, w5, w5
    3250:	85 82 ea    	com.w     w5, w5
    3252:	85 02 63    	and.w     w6, w5, w5
    3254:	05 0a 78    	mov.w     w5, [w4]

00003256 <.L14>:
    3256:	1e 02 78    	mov.w     [w14], w4
    3258:	14 02 90    	mov.w     [w4+2], w4
    325a:	9e 02 78    	mov.w     [w14], w5
    325c:	95 02 90    	mov.w     [w5+2], w5
    325e:	15 03 78    	mov.w     [w5], w6
    3260:	9e 02 78    	mov.w     [w14], w5
    3262:	e5 42 90    	mov.b     [w5+6], w5
    3264:	85 82 fb    	ze        w5, w5
    3266:	17 00 20    	mov.w     #0x1, w7
    3268:	85 3a dd    	sl.w      w7, w5, w5
    326a:	86 82 72    	ior.w     w5, w6, w5
    326c:	05 0a 78    	mov.w     w5, [w4]
    326e:	1e 02 78    	mov.w     [w14], w4
    3270:	80 02 eb    	clr.w     w5
    3272:	15 0a 98    	mov.w     w5, [w4+18]
    3274:	1e 02 78    	mov.w     [w14], w4
    3276:	65 f6 22    	mov.w     #0x2f66, w5
    3278:	25 0a 98    	mov.w     w5, [w4+20]
    327a:	00 80 fa    	ulnk      
    327c:	00 00 06    	return    

0000327e <_pin_digitalOut>:
    327e:	02 00 fa    	lnk       #0x2
    3280:	00 0f 78    	mov.w     w0, [w14]
    3282:	1e 02 78    	mov.w     [w14], w4
    3284:	24 02 90    	mov.w     [w4+4], w4
    3286:	e0 0f 52    	sub.w     w4, #0x0, [w15]
    3288:	0d 00 32    	bra       Z, 0x32a4 <.L16>
    328a:	1e 02 78    	mov.w     [w14], w4
    328c:	24 02 90    	mov.w     [w4+4], w4
    328e:	9e 02 78    	mov.w     [w14], w5
    3290:	a5 02 90    	mov.w     [w5+4], w5
    3292:	15 03 78    	mov.w     [w5], w6
    3294:	9e 02 78    	mov.w     [w14], w5
    3296:	e5 42 90    	mov.b     [w5+6], w5
    3298:	85 82 fb    	ze        w5, w5
    329a:	17 00 20    	mov.w     #0x1, w7
    329c:	85 3a dd    	sl.w      w7, w5, w5
    329e:	85 82 ea    	com.w     w5, w5
    32a0:	85 02 63    	and.w     w6, w5, w5
    32a2:	05 0a 78    	mov.w     w5, [w4]

000032a4 <.L16>:
    32a4:	1e 02 78    	mov.w     [w14], w4
    32a6:	14 02 78    	mov.w     [w4], w4
    32a8:	9e 02 78    	mov.w     [w14], w5
    32aa:	95 02 78    	mov.w     [w5], w5
    32ac:	15 03 78    	mov.w     [w5], w6
    32ae:	9e 02 78    	mov.w     [w14], w5
    32b0:	e5 42 90    	mov.b     [w5+6], w5
    32b2:	85 82 fb    	ze        w5, w5
    32b4:	17 00 20    	mov.w     #0x1, w7
    32b6:	85 3a dd    	sl.w      w7, w5, w5
    32b8:	85 82 ea    	com.w     w5, w5
    32ba:	85 02 63    	and.w     w6, w5, w5
    32bc:	05 0a 78    	mov.w     w5, [w4]
    32be:	1e 02 78    	mov.w     [w14], w4
    32c0:	14 02 90    	mov.w     [w4+2], w4
    32c2:	9e 02 78    	mov.w     [w14], w5
    32c4:	95 02 90    	mov.w     [w5+2], w5
    32c6:	15 03 78    	mov.w     [w5], w6
    32c8:	9e 02 78    	mov.w     [w14], w5
    32ca:	e5 42 90    	mov.b     [w5+6], w5
    32cc:	85 82 fb    	ze        w5, w5
    32ce:	17 00 20    	mov.w     #0x1, w7
    32d0:	85 3a dd    	sl.w      w7, w5, w5
    32d2:	85 82 ea    	com.w     w5, w5
    32d4:	85 02 63    	and.w     w6, w5, w5
    32d6:	05 0a 78    	mov.w     w5, [w4]
    32d8:	1e 02 78    	mov.w     [w14], w4
    32da:	25 f2 22    	mov.w     #0x2f22, w5
    32dc:	15 0a 98    	mov.w     w5, [w4+18]
    32de:	1e 02 78    	mov.w     [w14], w4
    32e0:	65 f6 22    	mov.w     #0x2f66, w5
    32e2:	25 0a 98    	mov.w     w5, [w4+20]
    32e4:	00 80 fa    	ulnk      
    32e6:	00 00 06    	return    

000032e8 <_pin_analogIn>:
    32e8:	02 00 fa    	lnk       #0x2
    32ea:	00 0f 78    	mov.w     w0, [w14]
    32ec:	1e 02 78    	mov.w     [w14], w4
    32ee:	24 02 90    	mov.w     [w4+4], w4
    32f0:	e0 0f 52    	sub.w     w4, #0x0, [w15]
    32f2:	1f 00 32    	bra       Z, 0x3332 <.L20>
    32f4:	1e 02 78    	mov.w     [w14], w4
    32f6:	14 02 90    	mov.w     [w4+2], w4
    32f8:	9e 02 78    	mov.w     [w14], w5
    32fa:	95 02 90    	mov.w     [w5+2], w5
    32fc:	15 03 78    	mov.w     [w5], w6
    32fe:	9e 02 78    	mov.w     [w14], w5
    3300:	e5 42 90    	mov.b     [w5+6], w5
    3302:	85 82 fb    	ze        w5, w5
    3304:	17 00 20    	mov.w     #0x1, w7
    3306:	85 3a dd    	sl.w      w7, w5, w5
    3308:	86 82 72    	ior.w     w5, w6, w5
    330a:	05 0a 78    	mov.w     w5, [w4]
    330c:	1e 02 78    	mov.w     [w14], w4
    330e:	24 02 90    	mov.w     [w4+4], w4
    3310:	9e 02 78    	mov.w     [w14], w5
    3312:	a5 02 90    	mov.w     [w5+4], w5
    3314:	15 03 78    	mov.w     [w5], w6
    3316:	9e 02 78    	mov.w     [w14], w5
    3318:	e5 42 90    	mov.b     [w5+6], w5
    331a:	85 82 fb    	ze        w5, w5
    331c:	17 00 20    	mov.w     #0x1, w7
    331e:	85 3a dd    	sl.w      w7, w5, w5
    3320:	86 82 72    	ior.w     w5, w6, w5
    3322:	05 0a 78    	mov.w     w5, [w4]
    3324:	1e 02 78    	mov.w     [w14], w4
    3326:	80 02 eb    	clr.w     w5
    3328:	15 0a 98    	mov.w     w5, [w4+18]
    332a:	1e 02 78    	mov.w     [w14], w4
    332c:	a5 f8 22    	mov.w     #0x2f8a, w5
    332e:	25 0a 98    	mov.w     w5, [w4+20]
    3330:	01 00 37    	bra       0x3334 <.L17>

00003332 <.L20>:
    3332:	00 00 00    	nop       

00003334 <.L17>:
    3334:	00 80 fa    	ulnk      
    3336:	00 00 06    	return    

00003338 <_pin_set>:
    3338:	02 00 fa    	lnk       #0x2
    333a:	00 0f 78    	mov.w     w0, [w14]
    333c:	1e 02 78    	mov.w     [w14], w4
    333e:	94 0a 90    	mov.w     [w4+18], w5
    3340:	24 f2 22    	mov.w     #0x2f22, w4
    3342:	84 8f 52    	sub.w     w5, w4, [w15]
    3344:	0c 00 3a    	bra       NZ, 0x335e <.L21>
    3346:	1e 02 78    	mov.w     [w14], w4
    3348:	14 02 78    	mov.w     [w4], w4
    334a:	9e 02 78    	mov.w     [w14], w5
    334c:	95 02 78    	mov.w     [w5], w5
    334e:	15 03 78    	mov.w     [w5], w6
    3350:	9e 02 78    	mov.w     [w14], w5
    3352:	e5 42 90    	mov.b     [w5+6], w5
    3354:	85 82 fb    	ze        w5, w5
    3356:	17 00 20    	mov.w     #0x1, w7
    3358:	85 3a dd    	sl.w      w7, w5, w5
    335a:	86 82 72    	ior.w     w5, w6, w5
    335c:	05 0a 78    	mov.w     w5, [w4]

0000335e <.L21>:
    335e:	00 80 fa    	ulnk      
    3360:	00 00 06    	return    

00003362 <_pin_clear>:
    3362:	02 00 fa    	lnk       #0x2
    3364:	00 0f 78    	mov.w     w0, [w14]
    3366:	1e 02 78    	mov.w     [w14], w4
    3368:	94 0a 90    	mov.w     [w4+18], w5
    336a:	24 f2 22    	mov.w     #0x2f22, w4
    336c:	84 8f 52    	sub.w     w5, w4, [w15]
    336e:	0d 00 3a    	bra       NZ, 0x338a <.L23>
    3370:	1e 02 78    	mov.w     [w14], w4
    3372:	14 02 78    	mov.w     [w4], w4
    3374:	9e 02 78    	mov.w     [w14], w5
    3376:	95 02 78    	mov.w     [w5], w5
    3378:	15 03 78    	mov.w     [w5], w6
    337a:	9e 02 78    	mov.w     [w14], w5
    337c:	e5 42 90    	mov.b     [w5+6], w5
    337e:	85 82 fb    	ze        w5, w5
    3380:	17 00 20    	mov.w     #0x1, w7
    3382:	85 3a dd    	sl.w      w7, w5, w5
    3384:	85 82 ea    	com.w     w5, w5
    3386:	85 02 63    	and.w     w6, w5, w5
    3388:	05 0a 78    	mov.w     w5, [w4]

0000338a <.L23>:
    338a:	00 80 fa    	ulnk      
    338c:	00 00 06    	return    

0000338e <_pin_toggle>:
    338e:	02 00 fa    	lnk       #0x2
    3390:	00 0f 78    	mov.w     w0, [w14]
    3392:	1e 02 78    	mov.w     [w14], w4
    3394:	94 0a 90    	mov.w     [w4+18], w5
    3396:	24 f2 22    	mov.w     #0x2f22, w4
    3398:	84 8f 52    	sub.w     w5, w4, [w15]
    339a:	0c 00 3a    	bra       NZ, 0x33b4 <.L25>
    339c:	1e 02 78    	mov.w     [w14], w4
    339e:	14 02 78    	mov.w     [w4], w4
    33a0:	9e 02 78    	mov.w     [w14], w5
    33a2:	95 02 78    	mov.w     [w5], w5
    33a4:	15 03 78    	mov.w     [w5], w6
    33a6:	9e 02 78    	mov.w     [w14], w5
    33a8:	e5 42 90    	mov.b     [w5+6], w5
    33aa:	85 82 fb    	ze        w5, w5
    33ac:	17 00 20    	mov.w     #0x1, w7
    33ae:	85 3a dd    	sl.w      w7, w5, w5
    33b0:	85 02 6b    	xor.w     w6, w5, w5
    33b2:	05 0a 78    	mov.w     w5, [w4]

000033b4 <.L25>:
    33b4:	00 80 fa    	ulnk      
    33b6:	00 00 06    	return    

000033b8 <_pin_write>:
    33b8:	04 00 fa    	lnk       #0x4
    33ba:	00 0f 78    	mov.w     w0, [w14]
    33bc:	11 07 98    	mov.w     w1, [w14+2]
    33be:	1e 02 78    	mov.w     [w14], w4
    33c0:	14 0a 90    	mov.w     [w4+18], w4
    33c2:	e0 0f 52    	sub.w     w4, #0x0, [w15]
    33c4:	05 00 32    	bra       Z, 0x33d0 <.L27>
    33c6:	1e 02 78    	mov.w     [w14], w4
    33c8:	14 0a 90    	mov.w     [w4+18], w4
    33ca:	9e 00 90    	mov.w     [w14+2], w1
    33cc:	1e 00 78    	mov.w     [w14], w0
    33ce:	04 00 01    	call      w4

000033d0 <.L27>:
    33d0:	00 80 fa    	ulnk      
    33d2:	00 00 06    	return    

000033d4 <_pin_read>:
    33d4:	02 00 fa    	lnk       #0x2
    33d6:	00 0f 78    	mov.w     w0, [w14]
    33d8:	1e 02 78    	mov.w     [w14], w4
    33da:	24 0a 90    	mov.w     [w4+20], w4
    33dc:	e0 0f 52    	sub.w     w4, #0x0, [w15]
    33de:	06 00 32    	bra       Z, 0x33ec <.L30>
    33e0:	1e 02 78    	mov.w     [w14], w4
    33e2:	24 0a 90    	mov.w     [w4+20], w4
    33e4:	1e 00 78    	mov.w     [w14], w0
    33e6:	04 00 01    	call      w4
    33e8:	00 02 78    	mov.w     w0, w4
    33ea:	01 00 37    	bra       0x33ee <.L31>

000033ec <.L30>:
    33ec:	00 82 eb    	setm.w    w4

000033ee <.L31>:
    33ee:	04 00 78    	mov.w     w4, w0
    33f0:	00 80 fa    	ulnk      
    33f2:	00 00 06    	return    

000033f4 <_init_ui>:

_LED led1, led2, led3;
_SW sw1, sw2, sw3;

void init_ui(void) {
    33f4:	00 00 fa    	lnk       #0x0
    led_init(&led1, (uint16_t *)&PORTD, (uint16_t *)&TRISD, 
    33f6:	74 c0 b3    	mov.b     #0x7, w4
    33f8:	63 4e 20    	mov.w     #0x4e6, w3
    33fa:	82 2d 20    	mov.w     #0x2d8, w2
    33fc:	a1 2d 20    	mov.w     #0x2da, w1
    33fe:	60 b4 20    	mov.w     #0xb46, w0
    3400:	20 00 07    	rcall     0x3442 <_led_init>
             (uint16_t *)&ANSD, 7);
    led_init(&led2, (uint16_t *)&PORTF, (uint16_t *)&TRISF, 
    3402:	00 42 eb    	clr.b     w4
    3404:	a3 4e 20    	mov.w     #0x4ea, w3
    3406:	82 2e 20    	mov.w     #0x2e8, w2
    3408:	a1 2e 20    	mov.w     #0x2ea, w1
    340a:	e0 b4 20    	mov.w     #0xb4e, w0
    340c:	1a 00 07    	rcall     0x3442 <_led_init>
             (uint16_t *)&ANSF, 0);
    led_init(&led3, (uint16_t *)&PORTF, (uint16_t *)&TRISF, 
    340e:	14 c0 b3    	mov.b     #0x1, w4
    3410:	a3 4e 20    	mov.w     #0x4ea, w3
    3412:	82 2e 20    	mov.w     #0x2e8, w2
    3414:	a1 2e 20    	mov.w     #0x2ea, w1
    3416:	60 b5 20    	mov.w     #0xb56, w0
    3418:	14 00 07    	rcall     0x3442 <_led_init>
             (uint16_t *)&ANSF, 1);
    sw_init(&sw1, (uint16_t *)&PORTC, (uint16_t *)&TRISC, 
    341a:	f4 c0 b3    	mov.b     #0xf, w4
    341c:	43 4e 20    	mov.w     #0x4e4, w3
    341e:	02 2d 20    	mov.w     #0x2d0, w2
    3420:	21 2d 20    	mov.w     #0x2d2, w1
    3422:	e0 b5 20    	mov.w     #0xb5e, w0
    3424:	ae 00 07    	rcall     0x3582 <_sw_init>
            (uint16_t *)&ANSC, 15);
    sw_init(&sw2, (uint16_t *)&PORTC, (uint16_t *)&TRISC, 
    3426:	c4 c0 b3    	mov.b     #0xc, w4
    3428:	43 4e 20    	mov.w     #0x4e4, w3
    342a:	02 2d 20    	mov.w     #0x2d0, w2
    342c:	21 2d 20    	mov.w     #0x2d2, w1
    342e:	60 b6 20    	mov.w     #0xb66, w0
    3430:	a8 00 07    	rcall     0x3582 <_sw_init>
            (uint16_t *)&ANSC, 12);
    sw_init(&sw3, (uint16_t *)&PORTB, (uint16_t *)&TRISB, 
    3432:	c4 c0 b3    	mov.b     #0xc, w4
    3434:	23 4e 20    	mov.w     #0x4e2, w3
    3436:	82 2c 20    	mov.w     #0x2c8, w2
    3438:	a1 2c 20    	mov.w     #0x2ca, w1
    343a:	e0 b6 20    	mov.w     #0xb6e, w0
    343c:	a2 00 07    	rcall     0x3582 <_sw_init>
            (uint16_t *)&ANSB, 12);
}
    343e:	00 80 fa    	ulnk      
    3440:	00 00 06    	return    

00003442 <_led_init>:

void led_init(_LED *self, uint16_t *port, uint16_t *tris, 
              uint16_t *ans, uint8_t bit) {
    3442:	0a 00 fa    	lnk       #0xa
    3444:	00 0f 78    	mov.w     w0, [w14]
    3446:	11 07 98    	mov.w     w1, [w14+2]
    3448:	22 07 98    	mov.w     w2, [w14+4]
    344a:	33 07 98    	mov.w     w3, [w14+6]
    344c:	04 4f 98    	mov.b     w4, [w14+8]
    self->port = port;
    344e:	1e 02 78    	mov.w     [w14], w4
    3450:	9e 02 90    	mov.w     [w14+2], w5
    3452:	05 0a 78    	mov.w     w5, [w4]
    self->tris = tris;
    3454:	1e 02 78    	mov.w     [w14], w4
    3456:	ae 02 90    	mov.w     [w14+4], w5
    3458:	15 02 98    	mov.w     w5, [w4+2]
    self->ans = ans;
    345a:	1e 02 78    	mov.w     [w14], w4
    345c:	be 02 90    	mov.w     [w14+6], w5
    345e:	25 02 98    	mov.w     w5, [w4+4]
    self->bit = bit;
    3460:	1e 02 78    	mov.w     [w14], w4
    3462:	8e 4a 90    	mov.b     [w14+8], w5
    3464:	65 42 98    	mov.b     w5, [w4+6]

    bitclear(self->ans, self->bit);
    3466:	1e 02 78    	mov.w     [w14], w4
    3468:	24 02 90    	mov.w     [w4+4], w4
    346a:	9e 02 78    	mov.w     [w14], w5
    346c:	a5 02 90    	mov.w     [w5+4], w5
    346e:	15 03 78    	mov.w     [w5], w6
    3470:	9e 02 78    	mov.w     [w14], w5
    3472:	e5 42 90    	mov.b     [w5+6], w5
    3474:	85 82 fb    	ze        w5, w5
    3476:	17 00 20    	mov.w     #0x1, w7
    3478:	85 3a dd    	sl.w      w7, w5, w5
    347a:	85 82 ea    	com.w     w5, w5
    347c:	85 02 63    	and.w     w6, w5, w5
    347e:	05 0a 78    	mov.w     w5, [w4]
    bitclear(self->port, self->bit);
    3480:	1e 02 78    	mov.w     [w14], w4
    3482:	14 02 78    	mov.w     [w4], w4
    3484:	9e 02 78    	mov.w     [w14], w5
    3486:	95 02 78    	mov.w     [w5], w5
    3488:	15 03 78    	mov.w     [w5], w6
    348a:	9e 02 78    	mov.w     [w14], w5
    348c:	e5 42 90    	mov.b     [w5+6], w5
    348e:	85 82 fb    	ze        w5, w5
    3490:	17 00 20    	mov.w     #0x1, w7
    3492:	85 3a dd    	sl.w      w7, w5, w5
    3494:	85 82 ea    	com.w     w5, w5
    3496:	85 02 63    	and.w     w6, w5, w5
    3498:	05 0a 78    	mov.w     w5, [w4]
    bitclear(self->tris, self->bit);
    349a:	1e 02 78    	mov.w     [w14], w4
    349c:	14 02 90    	mov.w     [w4+2], w4
    349e:	9e 02 78    	mov.w     [w14], w5
    34a0:	95 02 90    	mov.w     [w5+2], w5
    34a2:	15 03 78    	mov.w     [w5], w6
    34a4:	9e 02 78    	mov.w     [w14], w5
    34a6:	e5 42 90    	mov.b     [w5+6], w5
    34a8:	85 82 fb    	ze        w5, w5
    34aa:	17 00 20    	mov.w     #0x1, w7
    34ac:	85 3a dd    	sl.w      w7, w5, w5
    34ae:	85 82 ea    	com.w     w5, w5
    34b0:	85 02 63    	and.w     w6, w5, w5
    34b2:	05 0a 78    	mov.w     w5, [w4]
}
    34b4:	00 80 fa    	ulnk      
    34b6:	00 00 06    	return    

000034b8 <_led_on>:

void led_on(_LED *self) {
    34b8:	02 00 fa    	lnk       #0x2
    34ba:	00 0f 78    	mov.w     w0, [w14]
    bitset(self->port, self->bit);
    34bc:	1e 02 78    	mov.w     [w14], w4
    34be:	14 02 78    	mov.w     [w4], w4
    34c0:	9e 02 78    	mov.w     [w14], w5
    34c2:	95 02 78    	mov.w     [w5], w5
    34c4:	15 03 78    	mov.w     [w5], w6
    34c6:	9e 02 78    	mov.w     [w14], w5
    34c8:	e5 42 90    	mov.b     [w5+6], w5
    34ca:	85 82 fb    	ze        w5, w5
    34cc:	17 00 20    	mov.w     #0x1, w7
    34ce:	85 3a dd    	sl.w      w7, w5, w5
    34d0:	86 82 72    	ior.w     w5, w6, w5
    34d2:	05 0a 78    	mov.w     w5, [w4]
}
    34d4:	00 80 fa    	ulnk      
    34d6:	00 00 06    	return    

000034d8 <_led_off>:

void led_off(_LED *self) {
    34d8:	02 00 fa    	lnk       #0x2
    34da:	00 0f 78    	mov.w     w0, [w14]
    bitclear(self->port, self->bit);
    34dc:	1e 02 78    	mov.w     [w14], w4
    34de:	14 02 78    	mov.w     [w4], w4
    34e0:	9e 02 78    	mov.w     [w14], w5
    34e2:	95 02 78    	mov.w     [w5], w5
    34e4:	15 03 78    	mov.w     [w5], w6
    34e6:	9e 02 78    	mov.w     [w14], w5
    34e8:	e5 42 90    	mov.b     [w5+6], w5
    34ea:	85 82 fb    	ze        w5, w5
    34ec:	17 00 20    	mov.w     #0x1, w7
    34ee:	85 3a dd    	sl.w      w7, w5, w5
    34f0:	85 82 ea    	com.w     w5, w5
    34f2:	85 02 63    	and.w     w6, w5, w5
    34f4:	05 0a 78    	mov.w     w5, [w4]
}
    34f6:	00 80 fa    	ulnk      
    34f8:	00 00 06    	return    

000034fa <_led_toggle>:

void led_toggle(_LED *self) {
    34fa:	02 00 fa    	lnk       #0x2
    34fc:	00 0f 78    	mov.w     w0, [w14]
    bitflip(self->port, self->bit);
    34fe:	1e 02 78    	mov.w     [w14], w4
    3500:	14 02 78    	mov.w     [w4], w4
    3502:	9e 02 78    	mov.w     [w14], w5
    3504:	95 02 78    	mov.w     [w5], w5
    3506:	15 03 78    	mov.w     [w5], w6
    3508:	9e 02 78    	mov.w     [w14], w5
    350a:	e5 42 90    	mov.b     [w5+6], w5
    350c:	85 82 fb    	ze        w5, w5
    350e:	17 00 20    	mov.w     #0x1, w7
    3510:	85 3a dd    	sl.w      w7, w5, w5
    3512:	85 02 6b    	xor.w     w6, w5, w5
    3514:	05 0a 78    	mov.w     w5, [w4]
}
    3516:	00 80 fa    	ulnk      
    3518:	00 00 06    	return    

0000351a <_led_write>:

void led_write(_LED *self, uint16_t val) {
    351a:	04 00 fa    	lnk       #0x4
    351c:	00 0f 78    	mov.w     w0, [w14]
    351e:	11 07 98    	mov.w     w1, [w14+2]
    if (val)
    3520:	1e 02 90    	mov.w     [w14+2], w4
    3522:	e0 0f 52    	sub.w     w4, #0x0, [w15]
    3524:	0d 00 32    	bra       Z, 0x3540 <.L7>
        bitset(self->port, self->bit);
    3526:	1e 02 78    	mov.w     [w14], w4
    3528:	14 02 78    	mov.w     [w4], w4
    352a:	9e 02 78    	mov.w     [w14], w5
    352c:	95 02 78    	mov.w     [w5], w5
    352e:	15 03 78    	mov.w     [w5], w6
    3530:	9e 02 78    	mov.w     [w14], w5
    3532:	e5 42 90    	mov.b     [w5+6], w5
    3534:	85 82 fb    	ze        w5, w5
    3536:	17 00 20    	mov.w     #0x1, w7
    3538:	85 3a dd    	sl.w      w7, w5, w5
    353a:	86 82 72    	ior.w     w5, w6, w5
    353c:	05 0a 78    	mov.w     w5, [w4]
    353e:	0d 00 37    	bra       0x355a <.L6>

00003540 <.L7>:
    else
        bitclear(self->port, self->bit);
    3540:	1e 02 78    	mov.w     [w14], w4
    3542:	14 02 78    	mov.w     [w4], w4
    3544:	9e 02 78    	mov.w     [w14], w5
    3546:	95 02 78    	mov.w     [w5], w5
    3548:	15 03 78    	mov.w     [w5], w6
    354a:	9e 02 78    	mov.w     [w14], w5
    354c:	e5 42 90    	mov.b     [w5+6], w5
    354e:	85 82 fb    	ze        w5, w5
    3550:	17 00 20    	mov.w     #0x1, w7
    3552:	85 3a dd    	sl.w      w7, w5, w5
    3554:	85 82 ea    	com.w     w5, w5
    3556:	85 02 63    	and.w     w6, w5, w5
    3558:	05 0a 78    	mov.w     w5, [w4]

0000355a <.L6>:
}
    355a:	00 80 fa    	ulnk      
    355c:	00 00 06    	return    

0000355e <_led_read>:

uint16_t led_read(_LED *self) {
    355e:	02 00 fa    	lnk       #0x2
    3560:	00 0f 78    	mov.w     w0, [w14]
    return bitread(self->port, self->bit);
    3562:	1e 02 78    	mov.w     [w14], w4
    3564:	14 02 78    	mov.w     [w4], w4
    3566:	94 02 78    	mov.w     [w4], w5
    3568:	1e 02 78    	mov.w     [w14], w4
    356a:	64 42 90    	mov.b     [w4+6], w4
    356c:	04 82 fb    	ze        w4, w4
    356e:	16 00 20    	mov.w     #0x1, w6
    3570:	04 32 dd    	sl.w      w6, w4, w4
    3572:	04 82 62    	and.w     w5, w4, w4
    3574:	04 f0 a7    	btsc.w    w4, #0xf
    3576:	04 02 ea    	neg.w     w4, w4
    3578:	04 02 ea    	neg.w     w4, w4
    357a:	4f 22 de    	lsr.w     w4, #0xf, w4
}
    357c:	04 00 78    	mov.w     w4, w0
    357e:	00 80 fa    	ulnk      
    3580:	00 00 06    	return    

00003582 <_sw_init>:

void sw_init(_SW *self, uint16_t *port, uint16_t *tris, 
             uint16_t *ans, uint8_t bit) {
    3582:	0a 00 fa    	lnk       #0xa
    3584:	00 0f 78    	mov.w     w0, [w14]
    3586:	11 07 98    	mov.w     w1, [w14+2]
    3588:	22 07 98    	mov.w     w2, [w14+4]
    358a:	33 07 98    	mov.w     w3, [w14+6]
    358c:	04 4f 98    	mov.b     w4, [w14+8]
    self->port = port;
    358e:	1e 02 78    	mov.w     [w14], w4
    3590:	9e 02 90    	mov.w     [w14+2], w5
    3592:	05 0a 78    	mov.w     w5, [w4]
    self->tris = tris;
    3594:	1e 02 78    	mov.w     [w14], w4
    3596:	ae 02 90    	mov.w     [w14+4], w5
    3598:	15 02 98    	mov.w     w5, [w4+2]
    self->ans = ans;
    359a:	1e 02 78    	mov.w     [w14], w4
    359c:	be 02 90    	mov.w     [w14+6], w5
    359e:	25 02 98    	mov.w     w5, [w4+4]
    self->bit = bit;
    35a0:	1e 02 78    	mov.w     [w14], w4
    35a2:	8e 4a 90    	mov.b     [w14+8], w5
    35a4:	65 42 98    	mov.b     w5, [w4+6]

    bitclear(self->ans, self->bit);
    35a6:	1e 02 78    	mov.w     [w14], w4
    35a8:	24 02 90    	mov.w     [w4+4], w4
    35aa:	9e 02 78    	mov.w     [w14], w5
    35ac:	a5 02 90    	mov.w     [w5+4], w5
    35ae:	15 03 78    	mov.w     [w5], w6
    35b0:	9e 02 78    	mov.w     [w14], w5
    35b2:	e5 42 90    	mov.b     [w5+6], w5
    35b4:	85 82 fb    	ze        w5, w5
    35b6:	17 00 20    	mov.w     #0x1, w7
    35b8:	85 3a dd    	sl.w      w7, w5, w5
    35ba:	85 82 ea    	com.w     w5, w5
    35bc:	85 02 63    	and.w     w6, w5, w5
    35be:	05 0a 78    	mov.w     w5, [w4]
    bitset(self->tris, self->bit);
    35c0:	1e 02 78    	mov.w     [w14], w4
    35c2:	14 02 90    	mov.w     [w4+2], w4
    35c4:	9e 02 78    	mov.w     [w14], w5
    35c6:	95 02 90    	mov.w     [w5+2], w5
    35c8:	15 03 78    	mov.w     [w5], w6
    35ca:	9e 02 78    	mov.w     [w14], w5
    35cc:	e5 42 90    	mov.b     [w5+6], w5
    35ce:	85 82 fb    	ze        w5, w5
    35d0:	17 00 20    	mov.w     #0x1, w7
    35d2:	85 3a dd    	sl.w      w7, w5, w5
    35d4:	86 82 72    	ior.w     w5, w6, w5
    35d6:	05 0a 78    	mov.w     w5, [w4]
}
    35d8:	00 80 fa    	ulnk      
    35da:	00 00 06    	return    

000035dc <_sw_read>:

uint16_t sw_read(_SW *self) {
    35dc:	02 00 fa    	lnk       #0x2
    35de:	00 0f 78    	mov.w     w0, [w14]
    return bitread(self->port, self->bit);
    35e0:	1e 02 78    	mov.w     [w14], w4
    35e2:	14 02 78    	mov.w     [w4], w4
    35e4:	94 02 78    	mov.w     [w4], w5
    35e6:	1e 02 78    	mov.w     [w14], w4
    35e8:	64 42 90    	mov.b     [w4+6], w4
    35ea:	04 82 fb    	ze        w4, w4
    35ec:	16 00 20    	mov.w     #0x1, w6
    35ee:	04 32 dd    	sl.w      w6, w4, w4
    35f0:	04 82 62    	and.w     w5, w4, w4
    35f2:	04 f0 a7    	btsc.w    w4, #0xf
    35f4:	04 02 ea    	neg.w     w4, w4
    35f6:	04 02 ea    	neg.w     w4, w4
    35f8:	4f 22 de    	lsr.w     w4, #0xf, w4
    35fa:	04 00 78    	mov.w     w4, w0
    35fc:	00 80 fa    	ulnk      
    35fe:	00 00 06    	return    
Disassembly of section .dinit:

00003600 <.dinit>:
    3600:	76 0b 00    	nop       
    3602:	28 00 00    	nop       
    3604:	80 00 00    	nop       
    3606:	d8 0a 00    	nop       
    3608:	6e 00 00    	nop       
    360a:	80 00 00    	nop       
    360c:	9e 0b 00    	nop       
    360e:	10 00 00    	nop       
    3610:	82 00 00    	nop       
    3612:	bd 37 86    	mov.w     0xc6f6, w13
    3614:	33 bd 37    	bra       0xffffb07c
    3616:	06 35 bd    	subr.w    0x1506
    3618:	37 86 36    	bra       LEU, 0xffff4288
    361a:	bd 37 86    	mov.w     0xc6f6, w13
    361c:	37 00 00    	nop       
    361e:	46 0b 00    	nop       
    3620:	30 00 00    	nop       
    3622:	80 00 00    	nop       
    3624:	00 08 00    	nop       
    3626:	b8 01 00    	nop       
    3628:	80 00 00    	nop       
    362a:	b8 09 00    	nop       
    362c:	20 01 00    	nop       
    362e:	80 00 00    	nop       
    3630:	4e 0c 00    	nop       
    3632:	24 00 00    	nop       
    3634:	82 00 00    	nop       
    3636:	8e 0c 00    	nop       
    3638:	00 8e 0c    	bra       OA, 0xffff523a
    363a:	09 00 00    	nop       
    363c:	00 02 00    	nop       
    363e:	90 0c 00    	nop       
    3640:	00 90 0c    	bra       OA, 0xffff5642
    3642:	0e 02 01    	.pword 0x01020e
	...
    364a:	06 02 02    	call      0x206 <__DEFAULT_VECTOR-0xf06>
    364c:	00 00 00 
    364e:	8a 0c 00    	nop       
    3650:	02 00 00    	nop       
    3652:	82 00 00    	nop       
    3654:	4e 0c 00    	nop       
    3656:	8c 0c 00    	nop       
    3658:	02 00 00    	nop       
    365a:	80 00 00    	nop       
    365c:	8e 0c 00    	nop       
    365e:	02 00 00    	nop       
    3660:	80 00 00    	nop       
    3662:	90 0c 00    	nop       
    3664:	02 00 00    	nop       
    3666:	80 00 00    	nop       
    3668:	72 0c 00    	nop       
    366a:	18 00 00    	nop       
    366c:	82 00 00    	nop       
    366e:	28 6e 75    	ior.b     w10, [w8--], [++w12]
    3670:	6c 6c 29    	mov.w     #0x96c6, w12
    3672:	00 30 31    	bra       C, 0x9674
    3674:	32 33 34    	bra       LE, 0x9cda
    3676:	35 36 37    	bra       0xa2e2
    3678:	38 39 61    	.pword 0x613938
    367a:	62 63 64    	and.b     w8, #0x2, [--w6]
    367c:	65 66 00    	nop       
    367e:	ae 0b 00    	nop       
    3680:	a0 00 00    	nop       
    3682:	82 00 00    	nop       
    3684:	01 00 00    	nop       
    3686:	00 00 00    	nop       
    3688:	00 00 0a    	.pword 0x0a0000
	...
    368e:	00 64 00    	nop       
	...
    3694:	e8 03 00    	nop       
    3696:	00 00 00    	nop       
    3698:	00 00 10    	subr.w    w0, w0, w0
    369a:	27 00 00    	nop       
    369c:	00 00 00    	nop       
    369e:	00 a0 86    	mov.w     0xd400, w0
    36a0:	01 00 00    	nop       
    36a2:	00 00 00    	nop       
    36a4:	40 42 0f    	bra       SB, 0xbb26
    36a6:	00 00 00    	nop       
    36a8:	00 00 80    	mov.w     0x0, w0
    36aa:	96 98 00    	nop       
    36ac:	00 00 00    	nop       
    36ae:	00 00 e1    	cp.w      w0, w0
    36b0:	f5 05 00    	nop       
    36b2:	00 00 00    	nop       
    36b4:	00 ca 9a    	mov.b     w0, [w4+328]
    36b6:	3b 00 00    	nop       
    36b8:	00 00 00    	nop       
    36ba:	e4 0b 54    	sub.w     w8, #0x4, [w7]
    36bc:	02 00 00    	nop       
    36be:	00 00 e8    	inc.w     w0, w0
    36c0:	76 48 17    	subr.b    w14, #0x16, [w0]
    36c2:	00 00 00    	nop       
    36c4:	00 10 a5    	btst.c    w0, w2
    36c6:	d4 e8 00    	nop       
    36c8:	00 00 00    	nop       
    36ca:	a0 72 4e    	.pword 0x4e72a0
    36cc:	18 09 00    	nop       
    36ce:	00 00 40    	add.w     w0, w0, w0
    36d0:	7a 10 f3    	.pword 0xf3107a
    36d2:	5a 00 00    	nop       
    36d4:	00 80 c6    	mac       w6 * w7, B, [w8], w4, [w10], w4, w13
    36d6:	a4 7e 8d    	mov.w     w4, 0xafd4
    36d8:	03 00 00    	nop       
    36da:	00 c1 6f    	xor.b     w15, w0, w2
    36dc:	f2 86 23    	mov.w     #0x386f, w2
    36de:	00 00 00    	nop       
    36e0:	8a 5d 78    	mov.b     w10, [w11++]
    36e2:	45 63 01    	.pword 0x016345
    36e4:	00 00 64    	and.w     w8, w0, w0
    36e6:	a7 b3 b6    	xor.w     0x13a7
    36e8:	e0 0d 00    	nop       
    36ea:	00 e8 89    	mov.w     w0, 0x3d00
    36ec:	04 23 c7    	movsac    A, [w9+w12], w6, [w10]+=2, w4, w13
    36ee:	8a 00 00    	nop       
    36f0:	00 00 00    	nop       
Disassembly of section .text:

000036f2 <_main>:
#include <stdio.h>

uint8_t string[40];

int16_t main(void) {
    36f2:	00 00 fa    	lnk       #0x0
    init_clock();
    36f4:	04 10 20    	mov.w     #0x100, w4
    36f6:	24 3a 88    	mov.w     w4, 0x744
    init_uart();
    36f8:	65 f4 07    	rcall     0x1fc4 <_init_uart>

    printf("Hello World!\n");
    36fa:	60 be 29    	mov.w     #0x9be6, w0
    36fc:	36 ef 07    	rcall     0x156a <_puts>

    printf("What is your name? ");
    36fe:	34 bf 29    	mov.w     #0x9bf3, w4
    3700:	84 1f 78    	mov.w     w4, [w15++]
    3702:	3d ef 07    	rcall     0x157e <__printf_0>
    3704:	8f 87 e9    	dec2.w    w15, w15
    uart_gets(&uart1, string, 40);
    3706:	82 02 20    	mov.w     #0x28, w2
    3708:	61 b7 20    	mov.w     #0xb76, w1
    370a:	80 9b 20    	mov.w     #0x9b8, w0
    370c:	e4 f8 07    	rcall     0x28d6 <_uart_gets>
    printf("Hello %s!\n", string);
    370e:	64 b7 20    	mov.w     #0xb76, w4
    3710:	84 1f 78    	mov.w     w4, [w15++]
    3712:	74 c0 29    	mov.w     #0x9c07, w4
    3714:	84 1f 78    	mov.w     w4, [w15++]
    3716:	33 ef 07    	rcall     0x157e <__printf_0>
    3718:	e4 87 57    	sub.w     w15, #0x4, w15

    printf("Type something at the prompt.\n");
    371a:	20 c1 29    	mov.w     #0x9c12, w0
    371c:	26 ef 07    	rcall     0x156a <_puts>

0000371e <.L2>:

    while (1) {
        printf(">> ");
    371e:	04 c3 29    	mov.w     #0x9c30, w4
    3720:	84 1f 78    	mov.w     w4, [w15++]
    3722:	2d ef 07    	rcall     0x157e <__printf_0>
    3724:	8f 87 e9    	dec2.w    w15, w15
        uart_gets(&uart1, string, 40);
    3726:	82 02 20    	mov.w     #0x28, w2
    3728:	61 b7 20    	mov.w     #0xb76, w1
    372a:	80 9b 20    	mov.w     #0x9b8, w0
    372c:	d4 f8 07    	rcall     0x28d6 <_uart_gets>
        printf("You typed '%s'\n", string);
    372e:	64 b7 20    	mov.w     #0xb76, w4
    3730:	84 1f 78    	mov.w     w4, [w15++]
    3732:	44 c3 29    	mov.w     #0x9c34, w4
    3734:	84 1f 78    	mov.w     w4, [w15++]
    3736:	23 ef 07    	rcall     0x157e <__printf_0>
    3738:	e4 87 57    	sub.w     w15, #0x4, w15
    }
    373a:	f1 ff 37    	bra       0x371e <.L2>
Disassembly of section .isr:

0000373c <__DefaultInterrupt>:
    373c:	00 40 da    	.pword 0xda4000
    373e:	00 00 fe    	reset     
